
stdio.elf:     file format elf32-avr

Sections:
Idx Name          Size      VMA       LMA       File off  Algn
  0 .text         0000148e  00000000  00000000  00000094  2**1
                  CONTENTS, ALLOC, LOAD, READONLY, CODE
  1 .data         00000024  00800060  0000148e  00001522  2**0
                  CONTENTS, ALLOC, LOAD, DATA
  2 .bss          00000004  00800084  00800084  00001546  2**0
                  ALLOC
  3 .comment      0000005c  00000000  00000000  00001546  2**0
                  CONTENTS, READONLY
  4 .note.gnu.avr.deviceinfo 0000003c  00000000  00000000  000015a4  2**2
                  CONTENTS, READONLY
  5 .debug_aranges 00000128  00000000  00000000  000015e0  2**0
                  CONTENTS, READONLY, DEBUGGING
  6 .debug_info   000010fa  00000000  00000000  00001708  2**0
                  CONTENTS, READONLY, DEBUGGING
  7 .debug_abbrev 000009eb  00000000  00000000  00002802  2**0
                  CONTENTS, READONLY, DEBUGGING
  8 .debug_line   00000acb  00000000  00000000  000031ed  2**0
                  CONTENTS, READONLY, DEBUGGING
  9 .debug_frame  000003bc  00000000  00000000  00003cb8  2**2
                  CONTENTS, READONLY, DEBUGGING
 10 .debug_str    00000532  00000000  00000000  00004074  2**0
                  CONTENTS, READONLY, DEBUGGING
 11 .debug_loc    00000d4d  00000000  00000000  000045a6  2**0
                  CONTENTS, READONLY, DEBUGGING
 12 .debug_ranges 000000f0  00000000  00000000  000052f3  2**0
                  CONTENTS, READONLY, DEBUGGING

Disassembly of section .text:

00000000 <__vectors>:
       0:	0c 94 d1 00 	jmp	0x1a2	; 0x1a2 <__ctors_end>
       4:	0c 94 ee 00 	jmp	0x1dc	; 0x1dc <__bad_interrupt>
       8:	0c 94 ee 00 	jmp	0x1dc	; 0x1dc <__bad_interrupt>
       c:	0c 94 ee 00 	jmp	0x1dc	; 0x1dc <__bad_interrupt>
      10:	0c 94 ee 00 	jmp	0x1dc	; 0x1dc <__bad_interrupt>
      14:	0c 94 ee 00 	jmp	0x1dc	; 0x1dc <__bad_interrupt>
      18:	0c 94 ee 00 	jmp	0x1dc	; 0x1dc <__bad_interrupt>
      1c:	0c 94 69 04 	jmp	0x8d2	; 0x8d2 <__vector_7>
      20:	0c 94 ee 00 	jmp	0x1dc	; 0x1dc <__bad_interrupt>
      24:	0c 94 ee 00 	jmp	0x1dc	; 0x1dc <__bad_interrupt>
      28:	0c 94 ee 00 	jmp	0x1dc	; 0x1dc <__bad_interrupt>
      2c:	0c 94 8e 01 	jmp	0x31c	; 0x31c <__vector_11>
      30:	0c 94 ee 00 	jmp	0x1dc	; 0x1dc <__bad_interrupt>
      34:	0c 94 ee 00 	jmp	0x1dc	; 0x1dc <__bad_interrupt>
      38:	0c 94 ee 00 	jmp	0x1dc	; 0x1dc <__bad_interrupt>
      3c:	0c 94 ee 00 	jmp	0x1dc	; 0x1dc <__bad_interrupt>
      40:	0c 94 ee 00 	jmp	0x1dc	; 0x1dc <__bad_interrupt>
      44:	0c 94 ee 00 	jmp	0x1dc	; 0x1dc <__bad_interrupt>
      48:	0c 94 ee 00 	jmp	0x1dc	; 0x1dc <__bad_interrupt>
      4c:	0c 94 ee 00 	jmp	0x1dc	; 0x1dc <__bad_interrupt>
      50:	0c 94 ee 00 	jmp	0x1dc	; 0x1dc <__bad_interrupt>

00000054 <__trampolines_end>:
      54:	6e 61       	ori	r22, 0x1E	; 30
      56:	6e 00       	.word	0x006e	; ????

00000058 <__c.2332>:
      58:	69 6e 66 00 00 40 7a 10 f3 5a 00 a0 72 4e 18 09     inf..@z..Z..rN..
      68:	00 10 a5 d4 e8 00 00 e8 76 48 17 00 00 e4 0b 54     ........vH.....T
      78:	02 00 00 ca 9a 3b 00 00 00 e1 f5 05 00 00 80 96     .....;..........
      88:	98 00 00 00 40 42 0f 00 00 00 a0 86 01 00 00 00     ....@B..........
      98:	10 27 00 00 00 00 e8 03 00 00 00 00 64 00 00 00     .'..........d...
      a8:	00 00 0a 00 00 00 00 00 01 00 00 00 00 00 2c 76     ..............,v
      b8:	d8 88 dc 67 4f 08 23 df c1 df ae 59 e1 b1 b7 96     ...gO.#....Y....
      c8:	e5 e3 e4 53 c6 3a e6 51 99 76 96 e8 e6 c2 84 26     ...S.:.Q.v.....&
      d8:	eb 89 8c 9b 62 ed 40 7c 6f fc ef bc 9c 9f 40 f2     ....b.@|o.....@.
      e8:	ba a5 6f a5 f4 90 05 5a 2a f7 5c 93 6b 6c f9 67     ..o....Z*.\.kl.g
      f8:	6d c1 1b fc e0 e4 0d 47 fe f5 20 e6 b5 00 d0 ed     m......G.. .....
     108:	90 2e 03 00 94 35 77 05 00 80 84 1e 08 00 00 20     .....5w........ 
     118:	4e 0a 00 00 00 c8 0c 33 33 33 33 0f 98 6e 12 83     N......3333..n..
     128:	11 41 ef 8d 21 14 89 3b e6 55 16 cf fe e6 db 18     .A..!..;.U......
     138:	d1 84 4b 38 1b f7 7c 1d 90 1d a4 bb e4 24 20 32     ..K8..|......$ 2
     148:	84 72 5e 22 81 00 c9 f1 24 ec a1 e5 3d 27           .r^"....$...='

00000156 <__c.2168>:
     156:	25 69 25 69 3a 25 69 25 69 3a 25 69 25 69 00        %i%i:%i%i:%i%i.

00000165 <__c.2166>:
     165:	25 69 25 69 3a 25 69 25 69 3a 25 69 25 69 00        %i%i:%i%i:%i%i.

00000174 <__c.2164>:
     174:	25 69 25 69 3a 25 69 25 69 3a 25 69 25 69 00        %i%i:%i%i:%i%i.

00000183 <__c.2162>:
     183:	25 69 25 69 3a 25 69 25 69 3a 25 69 25 69 00        %i%i:%i%i:%i%i.

00000192 <__c.2157>:
     192:	25 69 25 69 3a 25 69 25 69 3a 25 69 25 69 00 00     %i%i:%i%i:%i%i..

000001a2 <__ctors_end>:
     1a2:	11 24       	eor	r1, r1
     1a4:	1f be       	out	0x3f, r1	; 63
     1a6:	cf e5       	ldi	r28, 0x5F	; 95
     1a8:	d8 e0       	ldi	r29, 0x08	; 8
     1aa:	de bf       	out	0x3e, r29	; 62
     1ac:	cd bf       	out	0x3d, r28	; 61

000001ae <__do_copy_data>:
     1ae:	10 e0       	ldi	r17, 0x00	; 0
     1b0:	a0 e6       	ldi	r26, 0x60	; 96
     1b2:	b0 e0       	ldi	r27, 0x00	; 0
     1b4:	ee e8       	ldi	r30, 0x8E	; 142
     1b6:	f4 e1       	ldi	r31, 0x14	; 20
     1b8:	02 c0       	rjmp	.+4      	; 0x1be <__do_copy_data+0x10>
     1ba:	05 90       	lpm	r0, Z+
     1bc:	0d 92       	st	X+, r0
     1be:	a4 38       	cpi	r26, 0x84	; 132
     1c0:	b1 07       	cpc	r27, r17
     1c2:	d9 f7       	brne	.-10     	; 0x1ba <__do_copy_data+0xc>

000001c4 <__do_clear_bss>:
     1c4:	20 e0       	ldi	r18, 0x00	; 0
     1c6:	a4 e8       	ldi	r26, 0x84	; 132
     1c8:	b0 e0       	ldi	r27, 0x00	; 0
     1ca:	01 c0       	rjmp	.+2      	; 0x1ce <.do_clear_bss_start>

000001cc <.do_clear_bss_loop>:
     1cc:	1d 92       	st	X+, r1

000001ce <.do_clear_bss_start>:
     1ce:	a8 38       	cpi	r26, 0x88	; 136
     1d0:	b2 07       	cpc	r27, r18
     1d2:	e1 f7       	brne	.-8      	; 0x1cc <.do_clear_bss_loop>
     1d4:	0e 94 84 02 	call	0x508	; 0x508 <main>
     1d8:	0c 94 45 0a 	jmp	0x148a	; 0x148a <_exit>

000001dc <__bad_interrupt>:
     1dc:	0c 94 00 00 	jmp	0	; 0x0 <__vectors>

000001e0 <LCD_WriteCommand>:
	#else
		//round up by default
		__ticks_dc = (uint32_t)(ceil(fabs(__tmp)));
	#endif

	__builtin_avr_delay_cycles(__ticks_dc);
     1e0:	cf 93       	push	r28
     1e2:	df 93       	push	r29
     1e4:	d8 2f       	mov	r29, r24
     1e6:	82 95       	swap	r24
     1e8:	8f 70       	andi	r24, 0x0F	; 15
     1ea:	20 e1       	ldi	r18, 0x10	; 16
     1ec:	82 9f       	mul	r24, r18
     1ee:	c0 01       	movw	r24, r0
     1f0:	11 24       	eor	r1, r1
     1f2:	c8 2f       	mov	r28, r24
     1f4:	cc 60       	ori	r28, 0x0C	; 12
     1f6:	8c 2f       	mov	r24, r28
     1f8:	0e 94 ab 03 	call	0x756	; 0x756 <PCF8574_WritePort>
     1fc:	cb 7f       	andi	r28, 0xFB	; 251
     1fe:	8c 2f       	mov	r24, r28
     200:	0e 94 ab 03 	call	0x756	; 0x756 <PCF8574_WritePort>
     204:	c4 60       	ori	r28, 0x04	; 4
     206:	20 e1       	ldi	r18, 0x10	; 16
     208:	d2 9f       	mul	r29, r18
     20a:	c0 01       	movw	r24, r0
     20c:	11 24       	eor	r1, r1
     20e:	cf 70       	andi	r28, 0x0F	; 15
     210:	c8 2b       	or	r28, r24
     212:	8c 2f       	mov	r24, r28
     214:	0e 94 ab 03 	call	0x756	; 0x756 <PCF8574_WritePort>
     218:	8c 2f       	mov	r24, r28
     21a:	8b 7f       	andi	r24, 0xFB	; 251
     21c:	0e 94 ab 03 	call	0x756	; 0x756 <PCF8574_WritePort>
     220:	86 ef       	ldi	r24, 0xF6	; 246
     222:	8a 95       	dec	r24
     224:	f1 f7       	brne	.-4      	; 0x222 <LCD_WriteCommand+0x42>
     226:	df 91       	pop	r29
     228:	cf 91       	pop	r28
     22a:	08 95       	ret

0000022c <LCD_WriteData>:
     22c:	cf 93       	push	r28
     22e:	df 93       	push	r29
     230:	d8 2f       	mov	r29, r24
     232:	82 95       	swap	r24
     234:	8f 70       	andi	r24, 0x0F	; 15
     236:	20 e1       	ldi	r18, 0x10	; 16
     238:	82 9f       	mul	r24, r18
     23a:	c0 01       	movw	r24, r0
     23c:	11 24       	eor	r1, r1
     23e:	c8 2f       	mov	r28, r24
     240:	cd 60       	ori	r28, 0x0D	; 13
     242:	8c 2f       	mov	r24, r28
     244:	0e 94 ab 03 	call	0x756	; 0x756 <PCF8574_WritePort>
     248:	cb 7f       	andi	r28, 0xFB	; 251
     24a:	8c 2f       	mov	r24, r28
     24c:	0e 94 ab 03 	call	0x756	; 0x756 <PCF8574_WritePort>
     250:	c4 60       	ori	r28, 0x04	; 4
     252:	20 e1       	ldi	r18, 0x10	; 16
     254:	d2 9f       	mul	r29, r18
     256:	c0 01       	movw	r24, r0
     258:	11 24       	eor	r1, r1
     25a:	cf 70       	andi	r28, 0x0F	; 15
     25c:	c8 2b       	or	r28, r24
     25e:	8c 2f       	mov	r24, r28
     260:	0e 94 ab 03 	call	0x756	; 0x756 <PCF8574_WritePort>
     264:	8c 2f       	mov	r24, r28
     266:	8b 7f       	andi	r24, 0xFB	; 251
     268:	0e 94 ab 03 	call	0x756	; 0x756 <PCF8574_WritePort>
     26c:	86 ef       	ldi	r24, 0xF6	; 246
     26e:	8a 95       	dec	r24
     270:	f1 f7       	brne	.-4      	; 0x26e <LCD_WriteData+0x42>
     272:	df 91       	pop	r29
     274:	cf 91       	pop	r28
     276:	08 95       	ret

00000278 <LCD_Clear>:
     278:	81 e0       	ldi	r24, 0x01	; 1
     27a:	0e 94 f0 00 	call	0x1e0	; 0x1e0 <LCD_WriteCommand>
     27e:	8c ec       	ldi	r24, 0xCC	; 204
     280:	9c e1       	ldi	r25, 0x1C	; 28
     282:	01 97       	sbiw	r24, 0x01	; 1
     284:	f1 f7       	brne	.-4      	; 0x282 <LCD_Clear+0xa>
     286:	00 c0       	rjmp	.+0      	; 0x288 <LCD_Clear+0x10>
     288:	00 00       	nop
     28a:	08 95       	ret

0000028c <LCD_Init>:
     28c:	cf 93       	push	r28
     28e:	df 93       	push	r29
     290:	8f ef       	ldi	r24, 0xFF	; 255
     292:	97 ed       	ldi	r25, 0xD7	; 215
     294:	01 97       	sbiw	r24, 0x01	; 1
     296:	f1 f7       	brne	.-4      	; 0x294 <LCD_Init+0x8>
     298:	00 c0       	rjmp	.+0      	; 0x29a <LCD_Init+0xe>
     29a:	00 00       	nop
     29c:	88 e0       	ldi	r24, 0x08	; 8
     29e:	0e 94 ab 03 	call	0x756	; 0x756 <PCF8574_WritePort>
     2a2:	d0 e0       	ldi	r29, 0x00	; 0
     2a4:	c8 e0       	ldi	r28, 0x08	; 8
     2a6:	11 c0       	rjmp	.+34     	; 0x2ca <LCD_Init+0x3e>
     2a8:	c4 60       	ori	r28, 0x04	; 4
     2aa:	cf 70       	andi	r28, 0x0F	; 15
     2ac:	c0 63       	ori	r28, 0x30	; 48
     2ae:	8c 2f       	mov	r24, r28
     2b0:	0e 94 ab 03 	call	0x756	; 0x756 <PCF8574_WritePort>
     2b4:	cb 7f       	andi	r28, 0xFB	; 251
     2b6:	8c 2f       	mov	r24, r28
     2b8:	0e 94 ab 03 	call	0x756	; 0x756 <PCF8574_WritePort>
     2bc:	8f ef       	ldi	r24, 0xFF	; 255
     2be:	97 e4       	ldi	r25, 0x47	; 71
     2c0:	01 97       	sbiw	r24, 0x01	; 1
     2c2:	f1 f7       	brne	.-4      	; 0x2c0 <LCD_Init+0x34>
     2c4:	00 c0       	rjmp	.+0      	; 0x2c6 <LCD_Init+0x3a>
     2c6:	00 00       	nop
     2c8:	df 5f       	subi	r29, 0xFF	; 255
     2ca:	d3 30       	cpi	r29, 0x03	; 3
     2cc:	68 f3       	brcs	.-38     	; 0x2a8 <LCD_Init+0x1c>
     2ce:	c4 60       	ori	r28, 0x04	; 4
     2d0:	cf 70       	andi	r28, 0x0F	; 15
     2d2:	c0 62       	ori	r28, 0x20	; 32
     2d4:	8c 2f       	mov	r24, r28
     2d6:	0e 94 ab 03 	call	0x756	; 0x756 <PCF8574_WritePort>
     2da:	8c 2f       	mov	r24, r28
     2dc:	8b 72       	andi	r24, 0x2B	; 43
     2de:	0e 94 ab 03 	call	0x756	; 0x756 <PCF8574_WritePort>
     2e2:	86 e6       	ldi	r24, 0x66	; 102
     2e4:	9e e0       	ldi	r25, 0x0E	; 14
     2e6:	01 97       	sbiw	r24, 0x01	; 1
     2e8:	f1 f7       	brne	.-4      	; 0x2e6 <LCD_Init+0x5a>
     2ea:	00 00       	nop
     2ec:	88 e2       	ldi	r24, 0x28	; 40
     2ee:	0e 94 f0 00 	call	0x1e0	; 0x1e0 <LCD_WriteCommand>
     2f2:	88 e0       	ldi	r24, 0x08	; 8
     2f4:	0e 94 f0 00 	call	0x1e0	; 0x1e0 <LCD_WriteCommand>
     2f8:	81 e0       	ldi	r24, 0x01	; 1
     2fa:	0e 94 f0 00 	call	0x1e0	; 0x1e0 <LCD_WriteCommand>
     2fe:	8c ec       	ldi	r24, 0xCC	; 204
     300:	9c e1       	ldi	r25, 0x1C	; 28
     302:	01 97       	sbiw	r24, 0x01	; 1
     304:	f1 f7       	brne	.-4      	; 0x302 <LCD_Init+0x76>
     306:	00 c0       	rjmp	.+0      	; 0x308 <LCD_Init+0x7c>
     308:	00 00       	nop
     30a:	86 e0       	ldi	r24, 0x06	; 6
     30c:	0e 94 f0 00 	call	0x1e0	; 0x1e0 <LCD_WriteCommand>
     310:	8c e0       	ldi	r24, 0x0C	; 12
     312:	0e 94 f0 00 	call	0x1e0	; 0x1e0 <LCD_WriteCommand>
     316:	df 91       	pop	r29
     318:	cf 91       	pop	r28
     31a:	08 95       	ret

0000031c <__vector_11>:
volatile uint8_t trybSek=0;

uint8_t sprawdzPrzycisk(unsigned char przycisk, uint8_t tryb);
volatile uint8_t timer0_ovf_counter=0;
ISR(TIMER0_OVF_vect)
{
     31c:	1f 92       	push	r1
     31e:	0f 92       	push	r0
     320:	0f b6       	in	r0, 0x3f	; 63
     322:	0f 92       	push	r0
     324:	11 24       	eor	r1, r1
     326:	8f 93       	push	r24
	if(++timer0_ovf_counter >=2)
     328:	80 91 84 00 	lds	r24, 0x0084	; 0x800084 <__data_end>
     32c:	8f 5f       	subi	r24, 0xFF	; 255
     32e:	80 93 84 00 	sts	0x0084, r24	; 0x800084 <__data_end>
     332:	82 30       	cpi	r24, 0x02	; 2
     334:	08 f4       	brcc	.+2      	; 0x338 <__vector_11+0x1c>
     336:	5e c0       	rjmp	.+188    	; 0x3f4 <__vector_11+0xd8>
	{
		if(!(BUTTON_PIN & (1<<BUTTON_GODZ)))
     338:	ca 99       	sbic	0x19, 2	; 25
     33a:	0f c0       	rjmp	.+30     	; 0x35a <__vector_11+0x3e>
		{
			switch(trybGodz)
     33c:	80 91 87 00 	lds	r24, 0x0087	; 0x800087 <trybGodz>
     340:	88 23       	and	r24, r24
     342:	19 f0       	breq	.+6      	; 0x34a <__vector_11+0x2e>
     344:	81 30       	cpi	r24, 0x01	; 1
     346:	29 f0       	breq	.+10     	; 0x352 <__vector_11+0x36>
     348:	15 c0       	rjmp	.+42     	; 0x374 <__vector_11+0x58>
			{
				case 0:
				trybGodz= 1;
     34a:	81 e0       	ldi	r24, 0x01	; 1
     34c:	80 93 87 00 	sts	0x0087, r24	; 0x800087 <trybGodz>
				break;
     350:	11 c0       	rjmp	.+34     	; 0x374 <__vector_11+0x58>
				case 1:
				trybGodz= 2;
     352:	82 e0       	ldi	r24, 0x02	; 2
     354:	80 93 87 00 	sts	0x0087, r24	; 0x800087 <trybGodz>
				break;
     358:	0d c0       	rjmp	.+26     	; 0x374 <__vector_11+0x58>
			}
		}
		else
		{
			switch(trybGodz)
     35a:	80 91 87 00 	lds	r24, 0x0087	; 0x800087 <trybGodz>
     35e:	83 30       	cpi	r24, 0x03	; 3
     360:	19 f0       	breq	.+6      	; 0x368 <__vector_11+0x4c>
     362:	84 30       	cpi	r24, 0x04	; 4
     364:	29 f0       	breq	.+10     	; 0x370 <__vector_11+0x54>
     366:	06 c0       	rjmp	.+12     	; 0x374 <__vector_11+0x58>
			{
				case 3:
				trybGodz= 4;
     368:	84 e0       	ldi	r24, 0x04	; 4
     36a:	80 93 87 00 	sts	0x0087, r24	; 0x800087 <trybGodz>
				break;
     36e:	02 c0       	rjmp	.+4      	; 0x374 <__vector_11+0x58>
				case 4:
				trybGodz= 0;
     370:	10 92 87 00 	sts	0x0087, r1	; 0x800087 <trybGodz>
				break;
			}
		}
		if(!(BUTTON_PIN & (1<<BUTTON_MIN)))
     374:	c9 99       	sbic	0x19, 1	; 25
     376:	0f c0       	rjmp	.+30     	; 0x396 <__vector_11+0x7a>
		{
			switch(trybMin)
     378:	80 91 86 00 	lds	r24, 0x0086	; 0x800086 <trybMin>
     37c:	88 23       	and	r24, r24
     37e:	19 f0       	breq	.+6      	; 0x386 <__vector_11+0x6a>
     380:	81 30       	cpi	r24, 0x01	; 1
     382:	29 f0       	breq	.+10     	; 0x38e <__vector_11+0x72>
     384:	15 c0       	rjmp	.+42     	; 0x3b0 <__vector_11+0x94>
			{
				case 0:
				trybMin= 1;
     386:	81 e0       	ldi	r24, 0x01	; 1
     388:	80 93 86 00 	sts	0x0086, r24	; 0x800086 <trybMin>
				break;
     38c:	11 c0       	rjmp	.+34     	; 0x3b0 <__vector_11+0x94>
				case 1:
				trybMin= 2;
     38e:	82 e0       	ldi	r24, 0x02	; 2
     390:	80 93 86 00 	sts	0x0086, r24	; 0x800086 <trybMin>
				break;
     394:	0d c0       	rjmp	.+26     	; 0x3b0 <__vector_11+0x94>
			}
		}
		else
		{
			switch(trybMin)
     396:	80 91 86 00 	lds	r24, 0x0086	; 0x800086 <trybMin>
     39a:	83 30       	cpi	r24, 0x03	; 3
     39c:	19 f0       	breq	.+6      	; 0x3a4 <__vector_11+0x88>
     39e:	84 30       	cpi	r24, 0x04	; 4
     3a0:	29 f0       	breq	.+10     	; 0x3ac <__vector_11+0x90>
     3a2:	06 c0       	rjmp	.+12     	; 0x3b0 <__vector_11+0x94>
			{
				case 3:
				trybMin= 4;
     3a4:	84 e0       	ldi	r24, 0x04	; 4
     3a6:	80 93 86 00 	sts	0x0086, r24	; 0x800086 <trybMin>
				break;
     3aa:	02 c0       	rjmp	.+4      	; 0x3b0 <__vector_11+0x94>
				case 4:
				trybMin= 0;
     3ac:	10 92 86 00 	sts	0x0086, r1	; 0x800086 <trybMin>
				break;
			}
		}
		if(!(BUTTON_PIN & (1<<BUTTON_SEK)))
     3b0:	c8 99       	sbic	0x19, 0	; 25
     3b2:	0f c0       	rjmp	.+30     	; 0x3d2 <__vector_11+0xb6>
		{
			switch(trybSek)
     3b4:	80 91 85 00 	lds	r24, 0x0085	; 0x800085 <trybSek>
     3b8:	88 23       	and	r24, r24
     3ba:	19 f0       	breq	.+6      	; 0x3c2 <__vector_11+0xa6>
     3bc:	81 30       	cpi	r24, 0x01	; 1
     3be:	29 f0       	breq	.+10     	; 0x3ca <__vector_11+0xae>
     3c0:	15 c0       	rjmp	.+42     	; 0x3ec <__vector_11+0xd0>
			{
				case 0:
				trybSek= 1;
     3c2:	81 e0       	ldi	r24, 0x01	; 1
     3c4:	80 93 85 00 	sts	0x0085, r24	; 0x800085 <trybSek>
				break;
     3c8:	11 c0       	rjmp	.+34     	; 0x3ec <__vector_11+0xd0>
				case 1:
				trybSek= 2;
     3ca:	82 e0       	ldi	r24, 0x02	; 2
     3cc:	80 93 85 00 	sts	0x0085, r24	; 0x800085 <trybSek>
				break;
     3d0:	0d c0       	rjmp	.+26     	; 0x3ec <__vector_11+0xd0>
			}
		}
		else
		{
			switch(trybSek)
     3d2:	80 91 85 00 	lds	r24, 0x0085	; 0x800085 <trybSek>
     3d6:	83 30       	cpi	r24, 0x03	; 3
     3d8:	19 f0       	breq	.+6      	; 0x3e0 <__vector_11+0xc4>
     3da:	84 30       	cpi	r24, 0x04	; 4
     3dc:	29 f0       	breq	.+10     	; 0x3e8 <__vector_11+0xcc>
     3de:	06 c0       	rjmp	.+12     	; 0x3ec <__vector_11+0xd0>
			{
				case 3:
				trybSek= 4;
     3e0:	84 e0       	ldi	r24, 0x04	; 4
     3e2:	80 93 85 00 	sts	0x0085, r24	; 0x800085 <trybSek>
				break;
     3e6:	02 c0       	rjmp	.+4      	; 0x3ec <__vector_11+0xd0>
				case 4:
				trybSek= 0;
     3e8:	10 92 85 00 	sts	0x0085, r1	; 0x800085 <trybSek>
				break;
			}
		}
		timer0_ovf_counter=0;
     3ec:	10 92 84 00 	sts	0x0084, r1	; 0x800084 <__data_end>
		TCNT0 = 43;
     3f0:	8b e2       	ldi	r24, 0x2B	; 43
     3f2:	82 bf       	out	0x32, r24	; 50
		//trybGodz = sprawdzPrzycisk(BUTTON_GODZ, trybGodz);
		//trybMin = sprawdzPrzycisk(BUTTON_GODZ, trybMin);
		//trybSek = sprawdzPrzycisk(BUTTON_GODZ, trybSek);
	
	
}
     3f4:	8f 91       	pop	r24
     3f6:	0f 90       	pop	r0
     3f8:	0f be       	out	0x3f, r0	; 63
     3fa:	0f 90       	pop	r0
     3fc:	1f 90       	pop	r1
     3fe:	18 95       	reti

00000400 <systimer_callback>:
	{
		czas[1]=0;
		czas[0]=0;
	}
	#else
	if(++czas[5]>=10)//sek jednosci
     400:	e0 e6       	ldi	r30, 0x60	; 96
     402:	f0 e0       	ldi	r31, 0x00	; 0
     404:	82 85       	ldd	r24, Z+10	; 0x0a
     406:	93 85       	ldd	r25, Z+11	; 0x0b
     408:	01 96       	adiw	r24, 0x01	; 1
     40a:	93 87       	std	Z+11, r25	; 0x0b
     40c:	82 87       	std	Z+10, r24	; 0x0a
     40e:	0a 97       	sbiw	r24, 0x0a	; 10
     410:	0c f4       	brge	.+2      	; 0x414 <systimer_callback+0x14>
     412:	4b c0       	rjmp	.+150    	; 0x4aa <systimer_callback+0xaa>
	{
		if(++czas[4]>=6) //sek dziesi
     414:	80 85       	ldd	r24, Z+8	; 0x08
     416:	91 85       	ldd	r25, Z+9	; 0x09
     418:	01 96       	adiw	r24, 0x01	; 1
     41a:	91 87       	std	Z+9, r25	; 0x09
     41c:	80 87       	std	Z+8, r24	; 0x08
     41e:	06 97       	sbiw	r24, 0x06	; 6
     420:	0c f4       	brge	.+2      	; 0x424 <systimer_callback+0x24>
     422:	3f c0       	rjmp	.+126    	; 0x4a2 <systimer_callback+0xa2>
		{
			if(++czas[3]>=10) // min jednosci
     424:	86 81       	ldd	r24, Z+6	; 0x06
     426:	97 81       	ldd	r25, Z+7	; 0x07
     428:	01 96       	adiw	r24, 0x01	; 1
     42a:	97 83       	std	Z+7, r25	; 0x07
     42c:	86 83       	std	Z+6, r24	; 0x06
     42e:	0a 97       	sbiw	r24, 0x0a	; 10
     430:	a4 f1       	brlt	.+104    	; 0x49a <systimer_callback+0x9a>
			{
				if(++czas[2]>=6) //min dziesiatki
     432:	84 81       	ldd	r24, Z+4	; 0x04
     434:	95 81       	ldd	r25, Z+5	; 0x05
     436:	01 96       	adiw	r24, 0x01	; 1
     438:	95 83       	std	Z+5, r25	; 0x05
     43a:	84 83       	std	Z+4, r24	; 0x04
     43c:	06 97       	sbiw	r24, 0x06	; 6
     43e:	4c f1       	brlt	.+82     	; 0x492 <systimer_callback+0x92>
				{
					//godziny jednosci
					if((czas[0]<2) && (++czas[1]>=10)) // godz: 0-19
     440:	80 91 60 00 	lds	r24, 0x0060	; 0x800060 <__DATA_REGION_ORIGIN__>
     444:	90 91 61 00 	lds	r25, 0x0061	; 0x800061 <__DATA_REGION_ORIGIN__+0x1>
     448:	82 30       	cpi	r24, 0x02	; 2
     44a:	91 05       	cpc	r25, r1
     44c:	7c f4       	brge	.+30     	; 0x46c <systimer_callback+0x6c>
     44e:	22 81       	ldd	r18, Z+2	; 0x02
     450:	33 81       	ldd	r19, Z+3	; 0x03
     452:	2f 5f       	subi	r18, 0xFF	; 255
     454:	3f 4f       	sbci	r19, 0xFF	; 255
     456:	33 83       	std	Z+3, r19	; 0x03
     458:	22 83       	std	Z+2, r18	; 0x02
     45a:	2a 30       	cpi	r18, 0x0A	; 10
     45c:	31 05       	cpc	r19, r1
     45e:	34 f0       	brlt	.+12     	; 0x46c <systimer_callback+0x6c>
					{
						++czas[0];
     460:	01 96       	adiw	r24, 0x01	; 1
     462:	91 83       	std	Z+1, r25	; 0x01
     464:	80 83       	st	Z, r24
						czas[1]=0;
     466:	13 82       	std	Z+3, r1	; 0x03
     468:	12 82       	std	Z+2, r1	; 0x02
     46a:	0f c0       	rjmp	.+30     	; 0x48a <systimer_callback+0x8a>
					}
					else if((czas[0]==2) && (++czas[1]>=4)) // godz: 20-24
     46c:	02 97       	sbiw	r24, 0x02	; 2
     46e:	69 f4       	brne	.+26     	; 0x48a <systimer_callback+0x8a>
     470:	e0 e6       	ldi	r30, 0x60	; 96
     472:	f0 e0       	ldi	r31, 0x00	; 0
     474:	82 81       	ldd	r24, Z+2	; 0x02
     476:	93 81       	ldd	r25, Z+3	; 0x03
     478:	01 96       	adiw	r24, 0x01	; 1
     47a:	93 83       	std	Z+3, r25	; 0x03
     47c:	82 83       	std	Z+2, r24	; 0x02
     47e:	04 97       	sbiw	r24, 0x04	; 4
     480:	24 f0       	brlt	.+8      	; 0x48a <systimer_callback+0x8a>
					{
						czas[1]=0;
     482:	13 82       	std	Z+3, r1	; 0x03
     484:	12 82       	std	Z+2, r1	; 0x02
						czas[0]=0;
     486:	11 82       	std	Z+1, r1	; 0x01
     488:	10 82       	st	Z, r1
					}
					czas[2]=0;
     48a:	10 92 65 00 	sts	0x0065, r1	; 0x800065 <__DATA_REGION_ORIGIN__+0x5>
     48e:	10 92 64 00 	sts	0x0064, r1	; 0x800064 <__DATA_REGION_ORIGIN__+0x4>
				}
				czas[3]=0;
     492:	10 92 67 00 	sts	0x0067, r1	; 0x800067 <__DATA_REGION_ORIGIN__+0x7>
     496:	10 92 66 00 	sts	0x0066, r1	; 0x800066 <__DATA_REGION_ORIGIN__+0x6>
			}
			czas[4]=0;
     49a:	10 92 69 00 	sts	0x0069, r1	; 0x800069 <__DATA_REGION_ORIGIN__+0x9>
     49e:	10 92 68 00 	sts	0x0068, r1	; 0x800068 <__DATA_REGION_ORIGIN__+0x8>
		}
		czas[5]=0;
     4a2:	10 92 6b 00 	sts	0x006B, r1	; 0x80006b <__DATA_REGION_ORIGIN__+0xb>
     4a6:	10 92 6a 00 	sts	0x006A, r1	; 0x80006a <__DATA_REGION_ORIGIN__+0xa>
	}
	#endif
	
	LCD_Clear();
     4aa:	0e 94 3c 01 	call	0x278	; 0x278 <LCD_Clear>
	
	fprintf_P(&LCDstdout, PSTR("%i%i:%i%i:%i%i"), czas[0],czas[1],czas[2],czas[3],czas[4],czas[5]);
     4ae:	e0 e6       	ldi	r30, 0x60	; 96
     4b0:	f0 e0       	ldi	r31, 0x00	; 0
     4b2:	83 85       	ldd	r24, Z+11	; 0x0b
     4b4:	8f 93       	push	r24
     4b6:	82 85       	ldd	r24, Z+10	; 0x0a
     4b8:	8f 93       	push	r24
     4ba:	81 85       	ldd	r24, Z+9	; 0x09
     4bc:	8f 93       	push	r24
     4be:	80 85       	ldd	r24, Z+8	; 0x08
     4c0:	8f 93       	push	r24
     4c2:	87 81       	ldd	r24, Z+7	; 0x07
     4c4:	8f 93       	push	r24
     4c6:	86 81       	ldd	r24, Z+6	; 0x06
     4c8:	8f 93       	push	r24
     4ca:	85 81       	ldd	r24, Z+5	; 0x05
     4cc:	8f 93       	push	r24
     4ce:	84 81       	ldd	r24, Z+4	; 0x04
     4d0:	8f 93       	push	r24
     4d2:	83 81       	ldd	r24, Z+3	; 0x03
     4d4:	8f 93       	push	r24
     4d6:	82 81       	ldd	r24, Z+2	; 0x02
     4d8:	8f 93       	push	r24
     4da:	81 81       	ldd	r24, Z+1	; 0x01
     4dc:	8f 93       	push	r24
     4de:	80 81       	ld	r24, Z
     4e0:	8f 93       	push	r24
     4e2:	82 e9       	ldi	r24, 0x92	; 146
     4e4:	91 e0       	ldi	r25, 0x01	; 1
     4e6:	9f 93       	push	r25
     4e8:	8f 93       	push	r24
     4ea:	8c e6       	ldi	r24, 0x6C	; 108
     4ec:	90 e0       	ldi	r25, 0x00	; 0
     4ee:	9f 93       	push	r25
     4f0:	8f 93       	push	r24
     4f2:	0e 94 90 09 	call	0x1320	; 0x1320 <fprintf_P>
}
     4f6:	8d b7       	in	r24, 0x3d	; 61
     4f8:	9e b7       	in	r25, 0x3e	; 62
     4fa:	40 96       	adiw	r24, 0x10	; 16
     4fc:	0f b6       	in	r0, 0x3f	; 63
     4fe:	f8 94       	cli
     500:	9e bf       	out	0x3e, r25	; 62
     502:	0f be       	out	0x3f, r0	; 63
     504:	8d bf       	out	0x3d, r24	; 61
     506:	08 95       	ret

00000508 <main>:

int main(void)
{
	
	//przyciski
	BUTTON_DDR &= ~((1<<BUTTON_GODZ)|(1<<BUTTON_MIN)|(1<<BUTTON_SEK)); //input od przyciskow
     508:	8a b3       	in	r24, 0x1a	; 26
     50a:	88 7f       	andi	r24, 0xF8	; 248
     50c:	8a bb       	out	0x1a, r24	; 26
	BUTTON_PORT |=  ((1<<BUTTON_GODZ)|(1<<BUTTON_MIN)|(1<<BUTTON_SEK)); //pullup
     50e:	8b b3       	in	r24, 0x1b	; 27
     510:	87 60       	ori	r24, 0x07	; 7
     512:	8b bb       	out	0x1b, r24	; 27
	
	
	
	systimer_init(1000);//1sek
     514:	88 ee       	ldi	r24, 0xE8	; 232
     516:	93 e0       	ldi	r25, 0x03	; 3
     518:	0e 94 b9 03 	call	0x772	; 0x772 <systimer_init>
	//systimer_init(100);
	
	//timer0
	TCCR0 = (1<<CS02)|(1<<CS00);
     51c:	85 e0       	ldi	r24, 0x05	; 5
     51e:	83 bf       	out	0x33, r24	; 51
	TIMSK |= (1<<TOIE0);
     520:	89 b7       	in	r24, 0x39	; 57
     522:	81 60       	ori	r24, 0x01	; 1
     524:	89 bf       	out	0x39, r24	; 57
	TCNT0 = 43;
     526:	8b e2       	ldi	r24, 0x2B	; 43
     528:	82 bf       	out	0x32, r24	; 50
	sei();
     52a:	78 94       	sei
	
	
	
	
	TWI_init();
     52c:	0e 94 8d 04 	call	0x91a	; 0x91a <TWI_init>
	LCD_Init();
     530:	0e 94 46 01 	call	0x28c	; 0x28c <LCD_Init>
	//stdout = &LCDstdout;
	
	//uint8_t var1 = 125;
	//float var2 = 12.63;
	
	fprintf_P(&LCDstdout, PSTR("%i%i:%i%i:%i%i"), czas[0],czas[1],czas[2],czas[3],czas[4],czas[5]);
     534:	e0 e6       	ldi	r30, 0x60	; 96
     536:	f0 e0       	ldi	r31, 0x00	; 0
     538:	83 85       	ldd	r24, Z+11	; 0x0b
     53a:	8f 93       	push	r24
     53c:	82 85       	ldd	r24, Z+10	; 0x0a
     53e:	8f 93       	push	r24
     540:	81 85       	ldd	r24, Z+9	; 0x09
     542:	8f 93       	push	r24
     544:	80 85       	ldd	r24, Z+8	; 0x08
     546:	8f 93       	push	r24
     548:	87 81       	ldd	r24, Z+7	; 0x07
     54a:	8f 93       	push	r24
     54c:	86 81       	ldd	r24, Z+6	; 0x06
     54e:	8f 93       	push	r24
     550:	85 81       	ldd	r24, Z+5	; 0x05
     552:	8f 93       	push	r24
     554:	84 81       	ldd	r24, Z+4	; 0x04
     556:	8f 93       	push	r24
     558:	83 81       	ldd	r24, Z+3	; 0x03
     55a:	8f 93       	push	r24
     55c:	82 81       	ldd	r24, Z+2	; 0x02
     55e:	8f 93       	push	r24
     560:	81 81       	ldd	r24, Z+1	; 0x01
     562:	8f 93       	push	r24
     564:	80 81       	ld	r24, Z
     566:	8f 93       	push	r24
     568:	83 e8       	ldi	r24, 0x83	; 131
     56a:	91 e0       	ldi	r25, 0x01	; 1
     56c:	9f 93       	push	r25
     56e:	8f 93       	push	r24
     570:	8c e6       	ldi	r24, 0x6C	; 108
     572:	90 e0       	ldi	r25, 0x00	; 0
     574:	9f 93       	push	r25
     576:	8f 93       	push	r24
     578:	0e 94 90 09 	call	0x1320	; 0x1320 <fprintf_P>
     57c:	8d b7       	in	r24, 0x3d	; 61
     57e:	9e b7       	in	r25, 0x3e	; 62
     580:	40 96       	adiw	r24, 0x10	; 16
     582:	0f b6       	in	r0, 0x3f	; 63
     584:	f8 94       	cli
     586:	9e bf       	out	0x3e, r25	; 62
     588:	0f be       	out	0x3f, r0	; 63
     58a:	8d bf       	out	0x3d, r24	; 61
	
	
	//printf(var2);
	while (1) 
  {
	  if(trybSek==2)
     58c:	80 91 85 00 	lds	r24, 0x0085	; 0x800085 <trybSek>
     590:	82 30       	cpi	r24, 0x02	; 2
     592:	a9 f5       	brne	.+106    	; 0x5fe <main+0xf6>
	  {
		  czas[5]=0;
     594:	c0 e6       	ldi	r28, 0x60	; 96
     596:	d0 e0       	ldi	r29, 0x00	; 0
     598:	1b 86       	std	Y+11, r1	; 0x0b
     59a:	1a 86       	std	Y+10, r1	; 0x0a
		  czas[4]=0;
     59c:	19 86       	std	Y+9, r1	; 0x09
     59e:	18 86       	std	Y+8, r1	; 0x08
		  trybSek=3;
     5a0:	83 e0       	ldi	r24, 0x03	; 3
     5a2:	80 93 85 00 	sts	0x0085, r24	; 0x800085 <trybSek>
		  LCD_Clear();
     5a6:	0e 94 3c 01 	call	0x278	; 0x278 <LCD_Clear>
		  
		  fprintf_P(&LCDstdout, PSTR("%i%i:%i%i:%i%i"), czas[0],czas[1],czas[2],czas[3],czas[4],czas[5]);
     5aa:	8b 85       	ldd	r24, Y+11	; 0x0b
     5ac:	8f 93       	push	r24
     5ae:	8a 85       	ldd	r24, Y+10	; 0x0a
     5b0:	8f 93       	push	r24
     5b2:	89 85       	ldd	r24, Y+9	; 0x09
     5b4:	8f 93       	push	r24
     5b6:	88 85       	ldd	r24, Y+8	; 0x08
     5b8:	8f 93       	push	r24
     5ba:	8f 81       	ldd	r24, Y+7	; 0x07
     5bc:	8f 93       	push	r24
     5be:	8e 81       	ldd	r24, Y+6	; 0x06
     5c0:	8f 93       	push	r24
     5c2:	8d 81       	ldd	r24, Y+5	; 0x05
     5c4:	8f 93       	push	r24
     5c6:	8c 81       	ldd	r24, Y+4	; 0x04
     5c8:	8f 93       	push	r24
     5ca:	8b 81       	ldd	r24, Y+3	; 0x03
     5cc:	8f 93       	push	r24
     5ce:	8a 81       	ldd	r24, Y+2	; 0x02
     5d0:	8f 93       	push	r24
     5d2:	89 81       	ldd	r24, Y+1	; 0x01
     5d4:	8f 93       	push	r24
     5d6:	88 81       	ld	r24, Y
     5d8:	8f 93       	push	r24
     5da:	84 e7       	ldi	r24, 0x74	; 116
     5dc:	91 e0       	ldi	r25, 0x01	; 1
     5de:	9f 93       	push	r25
     5e0:	8f 93       	push	r24
     5e2:	8c e6       	ldi	r24, 0x6C	; 108
     5e4:	90 e0       	ldi	r25, 0x00	; 0
     5e6:	9f 93       	push	r25
     5e8:	8f 93       	push	r24
     5ea:	0e 94 90 09 	call	0x1320	; 0x1320 <fprintf_P>
     5ee:	8d b7       	in	r24, 0x3d	; 61
     5f0:	9e b7       	in	r25, 0x3e	; 62
     5f2:	40 96       	adiw	r24, 0x10	; 16
     5f4:	0f b6       	in	r0, 0x3f	; 63
     5f6:	f8 94       	cli
     5f8:	9e bf       	out	0x3e, r25	; 62
     5fa:	0f be       	out	0x3f, r0	; 63
     5fc:	8d bf       	out	0x3d, r24	; 61
	  }
	  if(trybMin==2)
     5fe:	80 91 86 00 	lds	r24, 0x0086	; 0x800086 <trybMin>
     602:	82 30       	cpi	r24, 0x02	; 2
     604:	09 f0       	breq	.+2      	; 0x608 <main+0x100>
     606:	49 c0       	rjmp	.+146    	; 0x69a <main+0x192>
	  {
		  if(++czas[3]>=10)
     608:	e0 e6       	ldi	r30, 0x60	; 96
     60a:	f0 e0       	ldi	r31, 0x00	; 0
     60c:	86 81       	ldd	r24, Z+6	; 0x06
     60e:	97 81       	ldd	r25, Z+7	; 0x07
     610:	01 96       	adiw	r24, 0x01	; 1
     612:	97 83       	std	Z+7, r25	; 0x07
     614:	86 83       	std	Z+6, r24	; 0x06
     616:	0a 97       	sbiw	r24, 0x0a	; 10
     618:	7c f0       	brlt	.+30     	; 0x638 <main+0x130>
		  {
			if(++czas[2]>=6)
     61a:	84 81       	ldd	r24, Z+4	; 0x04
     61c:	95 81       	ldd	r25, Z+5	; 0x05
     61e:	01 96       	adiw	r24, 0x01	; 1
     620:	95 83       	std	Z+5, r25	; 0x05
     622:	84 83       	std	Z+4, r24	; 0x04
     624:	06 97       	sbiw	r24, 0x06	; 6
     626:	24 f0       	brlt	.+8      	; 0x630 <main+0x128>
			{
				czas[2]=0;
     628:	10 92 65 00 	sts	0x0065, r1	; 0x800065 <__DATA_REGION_ORIGIN__+0x5>
     62c:	10 92 64 00 	sts	0x0064, r1	; 0x800064 <__DATA_REGION_ORIGIN__+0x4>
			}
			czas[3]=0;
     630:	10 92 67 00 	sts	0x0067, r1	; 0x800067 <__DATA_REGION_ORIGIN__+0x7>
     634:	10 92 66 00 	sts	0x0066, r1	; 0x800066 <__DATA_REGION_ORIGIN__+0x6>
		  }
		  trybMin=3;
     638:	83 e0       	ldi	r24, 0x03	; 3
     63a:	80 93 86 00 	sts	0x0086, r24	; 0x800086 <trybMin>
		  LCD_Clear();
     63e:	0e 94 3c 01 	call	0x278	; 0x278 <LCD_Clear>
		  
		  fprintf_P(&LCDstdout, PSTR("%i%i:%i%i:%i%i"), czas[0],czas[1],czas[2],czas[3],czas[4],czas[5]);
     642:	e0 e6       	ldi	r30, 0x60	; 96
     644:	f0 e0       	ldi	r31, 0x00	; 0
     646:	83 85       	ldd	r24, Z+11	; 0x0b
     648:	8f 93       	push	r24
     64a:	82 85       	ldd	r24, Z+10	; 0x0a
     64c:	8f 93       	push	r24
     64e:	81 85       	ldd	r24, Z+9	; 0x09
     650:	8f 93       	push	r24
     652:	80 85       	ldd	r24, Z+8	; 0x08
     654:	8f 93       	push	r24
     656:	87 81       	ldd	r24, Z+7	; 0x07
     658:	8f 93       	push	r24
     65a:	86 81       	ldd	r24, Z+6	; 0x06
     65c:	8f 93       	push	r24
     65e:	85 81       	ldd	r24, Z+5	; 0x05
     660:	8f 93       	push	r24
     662:	84 81       	ldd	r24, Z+4	; 0x04
     664:	8f 93       	push	r24
     666:	83 81       	ldd	r24, Z+3	; 0x03
     668:	8f 93       	push	r24
     66a:	82 81       	ldd	r24, Z+2	; 0x02
     66c:	8f 93       	push	r24
     66e:	81 81       	ldd	r24, Z+1	; 0x01
     670:	8f 93       	push	r24
     672:	80 81       	ld	r24, Z
     674:	8f 93       	push	r24
     676:	85 e6       	ldi	r24, 0x65	; 101
     678:	91 e0       	ldi	r25, 0x01	; 1
     67a:	9f 93       	push	r25
     67c:	8f 93       	push	r24
     67e:	8c e6       	ldi	r24, 0x6C	; 108
     680:	90 e0       	ldi	r25, 0x00	; 0
     682:	9f 93       	push	r25
     684:	8f 93       	push	r24
     686:	0e 94 90 09 	call	0x1320	; 0x1320 <fprintf_P>
     68a:	8d b7       	in	r24, 0x3d	; 61
     68c:	9e b7       	in	r25, 0x3e	; 62
     68e:	40 96       	adiw	r24, 0x10	; 16
     690:	0f b6       	in	r0, 0x3f	; 63
     692:	f8 94       	cli
     694:	9e bf       	out	0x3e, r25	; 62
     696:	0f be       	out	0x3f, r0	; 63
     698:	8d bf       	out	0x3d, r24	; 61
	  }
	  if(trybGodz==2)
     69a:	80 91 87 00 	lds	r24, 0x0087	; 0x800087 <trybGodz>
     69e:	82 30       	cpi	r24, 0x02	; 2
     6a0:	09 f0       	breq	.+2      	; 0x6a4 <main+0x19c>
     6a2:	74 cf       	rjmp	.-280    	; 0x58c <main+0x84>
	  {
		  if((czas[0]<2) && (++czas[1]>=10)) // godz: 0-19
     6a4:	80 91 60 00 	lds	r24, 0x0060	; 0x800060 <__DATA_REGION_ORIGIN__>
     6a8:	90 91 61 00 	lds	r25, 0x0061	; 0x800061 <__DATA_REGION_ORIGIN__+0x1>
     6ac:	82 30       	cpi	r24, 0x02	; 2
     6ae:	91 05       	cpc	r25, r1
     6b0:	8c f4       	brge	.+34     	; 0x6d4 <main+0x1cc>
     6b2:	e0 e6       	ldi	r30, 0x60	; 96
     6b4:	f0 e0       	ldi	r31, 0x00	; 0
     6b6:	22 81       	ldd	r18, Z+2	; 0x02
     6b8:	33 81       	ldd	r19, Z+3	; 0x03
     6ba:	2f 5f       	subi	r18, 0xFF	; 255
     6bc:	3f 4f       	sbci	r19, 0xFF	; 255
     6be:	33 83       	std	Z+3, r19	; 0x03
     6c0:	22 83       	std	Z+2, r18	; 0x02
     6c2:	2a 30       	cpi	r18, 0x0A	; 10
     6c4:	31 05       	cpc	r19, r1
     6c6:	34 f0       	brlt	.+12     	; 0x6d4 <main+0x1cc>
		  {
			  ++czas[0];
     6c8:	01 96       	adiw	r24, 0x01	; 1
     6ca:	91 83       	std	Z+1, r25	; 0x01
     6cc:	80 83       	st	Z, r24
			  czas[1]=0;
     6ce:	13 82       	std	Z+3, r1	; 0x03
     6d0:	12 82       	std	Z+2, r1	; 0x02
     6d2:	0f c0       	rjmp	.+30     	; 0x6f2 <main+0x1ea>
		  }
		  else if((czas[0]==2) && (++czas[1]>=4)) // godz: 20-24
     6d4:	02 97       	sbiw	r24, 0x02	; 2
     6d6:	69 f4       	brne	.+26     	; 0x6f2 <main+0x1ea>
     6d8:	e0 e6       	ldi	r30, 0x60	; 96
     6da:	f0 e0       	ldi	r31, 0x00	; 0
     6dc:	82 81       	ldd	r24, Z+2	; 0x02
     6de:	93 81       	ldd	r25, Z+3	; 0x03
     6e0:	01 96       	adiw	r24, 0x01	; 1
     6e2:	93 83       	std	Z+3, r25	; 0x03
     6e4:	82 83       	std	Z+2, r24	; 0x02
     6e6:	04 97       	sbiw	r24, 0x04	; 4
     6e8:	24 f0       	brlt	.+8      	; 0x6f2 <main+0x1ea>
		  {
			  czas[1]=0;
     6ea:	13 82       	std	Z+3, r1	; 0x03
     6ec:	12 82       	std	Z+2, r1	; 0x02
			  czas[0]=0;
     6ee:	11 82       	std	Z+1, r1	; 0x01
     6f0:	10 82       	st	Z, r1
		  }
		  trybGodz=3;
     6f2:	83 e0       	ldi	r24, 0x03	; 3
     6f4:	80 93 87 00 	sts	0x0087, r24	; 0x800087 <trybGodz>
		  LCD_Clear();
     6f8:	0e 94 3c 01 	call	0x278	; 0x278 <LCD_Clear>
		  
		  fprintf_P(&LCDstdout, PSTR("%i%i:%i%i:%i%i"), czas[0],czas[1],czas[2],czas[3],czas[4],czas[5]);
     6fc:	e0 e6       	ldi	r30, 0x60	; 96
     6fe:	f0 e0       	ldi	r31, 0x00	; 0
     700:	83 85       	ldd	r24, Z+11	; 0x0b
     702:	8f 93       	push	r24
     704:	82 85       	ldd	r24, Z+10	; 0x0a
     706:	8f 93       	push	r24
     708:	81 85       	ldd	r24, Z+9	; 0x09
     70a:	8f 93       	push	r24
     70c:	80 85       	ldd	r24, Z+8	; 0x08
     70e:	8f 93       	push	r24
     710:	87 81       	ldd	r24, Z+7	; 0x07
     712:	8f 93       	push	r24
     714:	86 81       	ldd	r24, Z+6	; 0x06
     716:	8f 93       	push	r24
     718:	85 81       	ldd	r24, Z+5	; 0x05
     71a:	8f 93       	push	r24
     71c:	84 81       	ldd	r24, Z+4	; 0x04
     71e:	8f 93       	push	r24
     720:	83 81       	ldd	r24, Z+3	; 0x03
     722:	8f 93       	push	r24
     724:	82 81       	ldd	r24, Z+2	; 0x02
     726:	8f 93       	push	r24
     728:	81 81       	ldd	r24, Z+1	; 0x01
     72a:	8f 93       	push	r24
     72c:	80 81       	ld	r24, Z
     72e:	8f 93       	push	r24
     730:	86 e5       	ldi	r24, 0x56	; 86
     732:	91 e0       	ldi	r25, 0x01	; 1
     734:	9f 93       	push	r25
     736:	8f 93       	push	r24
     738:	8c e6       	ldi	r24, 0x6C	; 108
     73a:	90 e0       	ldi	r25, 0x00	; 0
     73c:	9f 93       	push	r25
     73e:	8f 93       	push	r24
     740:	0e 94 90 09 	call	0x1320	; 0x1320 <fprintf_P>
     744:	8d b7       	in	r24, 0x3d	; 61
     746:	9e b7       	in	r25, 0x3e	; 62
     748:	40 96       	adiw	r24, 0x10	; 16
     74a:	0f b6       	in	r0, 0x3f	; 63
     74c:	f8 94       	cli
     74e:	9e bf       	out	0x3e, r25	; 62
     750:	0f be       	out	0x3f, r0	; 63
     752:	8d bf       	out	0x3d, r24	; 61
     754:	1b cf       	rjmp	.-458    	; 0x58c <main+0x84>

00000756 <PCF8574_WritePort>:
     756:	cf 93       	push	r28
     758:	c8 2f       	mov	r28, r24
     75a:	0e 94 97 04 	call	0x92e	; 0x92e <TWI_start>
     75e:	8e e4       	ldi	r24, 0x4E	; 78
     760:	0e 94 9c 04 	call	0x938	; 0x938 <TWI_write>
     764:	8c 2f       	mov	r24, r28
     766:	0e 94 9c 04 	call	0x938	; 0x938 <TWI_write>
     76a:	0e 94 90 04 	call	0x920	; 0x920 <TWI_stop>
     76e:	cf 91       	pop	r28
     770:	08 95       	ret

00000772 <systimer_init>:
{
	systimer_callback();
}

void systimer_callback(void)
{
     772:	2f 92       	push	r2
     774:	3f 92       	push	r3
     776:	4f 92       	push	r4
     778:	5f 92       	push	r5
     77a:	6f 92       	push	r6
     77c:	7f 92       	push	r7
     77e:	8f 92       	push	r8
     780:	9f 92       	push	r9
     782:	af 92       	push	r10
     784:	bf 92       	push	r11
     786:	cf 92       	push	r12
     788:	df 92       	push	r13
     78a:	ef 92       	push	r14
     78c:	ff 92       	push	r15
     78e:	0f 93       	push	r16
     790:	1f 93       	push	r17
     792:	cf 93       	push	r28
     794:	df 93       	push	r29
     796:	cd b7       	in	r28, 0x3d	; 61
     798:	de b7       	in	r29, 0x3e	; 62
     79a:	2e 97       	sbiw	r28, 0x0e	; 14
     79c:	0f b6       	in	r0, 0x3f	; 63
     79e:	f8 94       	cli
     7a0:	de bf       	out	0x3e, r29	; 62
     7a2:	0f be       	out	0x3f, r0	; 63
     7a4:	cd bf       	out	0x3d, r28	; 61
     7a6:	5c 01       	movw	r10, r24
     7a8:	8a e0       	ldi	r24, 0x0A	; 10
     7aa:	ea e7       	ldi	r30, 0x7A	; 122
     7ac:	f0 e0       	ldi	r31, 0x00	; 0
     7ae:	de 01       	movw	r26, r28
     7b0:	11 96       	adiw	r26, 0x01	; 1
     7b2:	01 90       	ld	r0, Z+
     7b4:	0d 92       	st	X+, r0
     7b6:	8a 95       	dec	r24
     7b8:	e1 f7       	brne	.-8      	; 0x7b2 <systimer_init+0x40>
     7ba:	10 e0       	ldi	r17, 0x00	; 0
     7bc:	01 c0       	rjmp	.+2      	; 0x7c0 <systimer_init+0x4e>
     7be:	10 2f       	mov	r17, r16
     7c0:	e1 2f       	mov	r30, r17
     7c2:	f0 e0       	ldi	r31, 0x00	; 0
     7c4:	ee 0f       	add	r30, r30
     7c6:	ff 1f       	adc	r31, r31
     7c8:	21 e0       	ldi	r18, 0x01	; 1
     7ca:	30 e0       	ldi	r19, 0x00	; 0
     7cc:	2c 0f       	add	r18, r28
     7ce:	3d 1f       	adc	r19, r29
     7d0:	e2 0f       	add	r30, r18
     7d2:	f3 1f       	adc	r31, r19
     7d4:	20 81       	ld	r18, Z
     7d6:	31 81       	ldd	r19, Z+1	; 0x01
     7d8:	40 e0       	ldi	r20, 0x00	; 0
     7da:	50 e0       	ldi	r21, 0x00	; 0
     7dc:	60 e0       	ldi	r22, 0x00	; 0
     7de:	74 e2       	ldi	r23, 0x24	; 36
     7e0:	84 ef       	ldi	r24, 0xF4	; 244
     7e2:	90 e0       	ldi	r25, 0x00	; 0
     7e4:	0e 94 2f 08 	call	0x105e	; 0x105e <__udivmodsi4>
     7e8:	65 01       	movw	r12, r10
     7ea:	e1 2c       	mov	r14, r1
     7ec:	f1 2c       	mov	r15, r1
     7ee:	c7 01       	movw	r24, r14
     7f0:	b6 01       	movw	r22, r12
     7f2:	0e 94 1f 08 	call	0x103e	; 0x103e <__mulsi3>
     7f6:	28 ee       	ldi	r18, 0xE8	; 232
     7f8:	33 e0       	ldi	r19, 0x03	; 3
     7fa:	40 e0       	ldi	r20, 0x00	; 0
     7fc:	50 e0       	ldi	r21, 0x00	; 0
     7fe:	0e 94 2f 08 	call	0x105e	; 0x105e <__udivmodsi4>
     802:	2b 87       	std	Y+11, r18	; 0x0b
     804:	3c 87       	std	Y+12, r19	; 0x0c
     806:	4d 87       	std	Y+13, r20	; 0x0d
     808:	5e 87       	std	Y+14, r21	; 0x0e
     80a:	19 01       	movw	r2, r18
     80c:	2a 01       	movw	r4, r20
     80e:	33 2d       	mov	r19, r3
     810:	44 2d       	mov	r20, r4
     812:	55 2d       	mov	r21, r5
     814:	60 e0       	ldi	r22, 0x00	; 0
     816:	70 e0       	ldi	r23, 0x00	; 0
     818:	80 e0       	ldi	r24, 0x00	; 0
     81a:	90 e0       	ldi	r25, 0x00	; 0
     81c:	21 15       	cp	r18, r1
     81e:	31 05       	cpc	r19, r1
     820:	41 40       	sbci	r20, 0x01	; 1
     822:	51 05       	cpc	r21, r1
     824:	61 05       	cpc	r22, r1
     826:	71 05       	cpc	r23, r1
     828:	81 05       	cpc	r24, r1
     82a:	91 05       	cpc	r25, r1
     82c:	31 f0       	breq	.+12     	; 0x83a <__DATA_REGION_LENGTH__+0x3a>
     82e:	28 f0       	brcs	.+10     	; 0x83a <__DATA_REGION_LENGTH__+0x3a>
     830:	01 e0       	ldi	r16, 0x01	; 1
     832:	01 0f       	add	r16, r17
     834:	15 30       	cpi	r17, 0x05	; 5
     836:	18 f2       	brcs	.-122    	; 0x7be <systimer_init+0x4c>
     838:	01 c0       	rjmp	.+2      	; 0x83c <__DATA_REGION_LENGTH__+0x3c>
     83a:	01 2f       	mov	r16, r17
     83c:	05 30       	cpi	r16, 0x05	; 5
     83e:	08 f5       	brcc	.+66     	; 0x882 <__stack+0x23>
     840:	e0 2f       	mov	r30, r16
     842:	f0 e0       	ldi	r31, 0x00	; 0
     844:	ee 0f       	add	r30, r30
     846:	ff 1f       	adc	r31, r31
     848:	21 e0       	ldi	r18, 0x01	; 1
     84a:	30 e0       	ldi	r19, 0x00	; 0
     84c:	2c 0f       	add	r18, r28
     84e:	3d 1f       	adc	r19, r29
     850:	e2 0f       	add	r30, r18
     852:	f3 1f       	adc	r31, r19
     854:	20 81       	ld	r18, Z
     856:	31 81       	ldd	r19, Z+1	; 0x01
     858:	40 e0       	ldi	r20, 0x00	; 0
     85a:	50 e0       	ldi	r21, 0x00	; 0
     85c:	60 e0       	ldi	r22, 0x00	; 0
     85e:	74 e2       	ldi	r23, 0x24	; 36
     860:	84 ef       	ldi	r24, 0xF4	; 244
     862:	90 e0       	ldi	r25, 0x00	; 0
     864:	0e 94 2f 08 	call	0x105e	; 0x105e <__udivmodsi4>
     868:	ca 01       	movw	r24, r20
     86a:	b9 01       	movw	r22, r18
     86c:	a7 01       	movw	r20, r14
     86e:	96 01       	movw	r18, r12
     870:	0e 94 1f 08 	call	0x103e	; 0x103e <__mulsi3>
     874:	68 3e       	cpi	r22, 0xE8	; 232
     876:	73 40       	sbci	r23, 0x03	; 3
     878:	81 05       	cpc	r24, r1
     87a:	91 05       	cpc	r25, r1
     87c:	20 f0       	brcs	.+8      	; 0x886 <__stack+0x27>
     87e:	81 e0       	ldi	r24, 0x01	; 1
     880:	03 c0       	rjmp	.+6      	; 0x888 <__stack+0x29>
     882:	82 e0       	ldi	r24, 0x02	; 2
     884:	01 c0       	rjmp	.+2      	; 0x888 <__stack+0x29>
     886:	80 e0       	ldi	r24, 0x00	; 0
     888:	82 30       	cpi	r24, 0x02	; 2
     88a:	50 f4       	brcc	.+20     	; 0x8a0 <__stack+0x41>
     88c:	2b 85       	ldd	r18, Y+11	; 0x0b
     88e:	3c 85       	ldd	r19, Y+12	; 0x0c
     890:	3b bd       	out	0x2b, r19	; 43
     892:	2a bd       	out	0x2a, r18	; 42
     894:	99 b7       	in	r25, 0x39	; 57
     896:	90 61       	ori	r25, 0x10	; 16
     898:	99 bf       	out	0x39, r25	; 57
     89a:	0f 5f       	subi	r16, 0xFF	; 255
     89c:	08 60       	ori	r16, 0x08	; 8
     89e:	0e bd       	out	0x2e, r16	; 46
     8a0:	2e 96       	adiw	r28, 0x0e	; 14
     8a2:	0f b6       	in	r0, 0x3f	; 63
     8a4:	f8 94       	cli
     8a6:	de bf       	out	0x3e, r29	; 62
     8a8:	0f be       	out	0x3f, r0	; 63
     8aa:	cd bf       	out	0x3d, r28	; 61
     8ac:	df 91       	pop	r29
     8ae:	cf 91       	pop	r28
     8b0:	1f 91       	pop	r17
     8b2:	0f 91       	pop	r16
     8b4:	ff 90       	pop	r15
     8b6:	ef 90       	pop	r14
     8b8:	df 90       	pop	r13
     8ba:	cf 90       	pop	r12
     8bc:	bf 90       	pop	r11
     8be:	af 90       	pop	r10
     8c0:	9f 90       	pop	r9
     8c2:	8f 90       	pop	r8
     8c4:	7f 90       	pop	r7
     8c6:	6f 90       	pop	r6
     8c8:	5f 90       	pop	r5
     8ca:	4f 90       	pop	r4
     8cc:	3f 90       	pop	r3
     8ce:	2f 90       	pop	r2
     8d0:	08 95       	ret

000008d2 <__vector_7>:
		
	return error_code;
}

ISR(TIMER1_COMPA_vect)
{
     8d2:	1f 92       	push	r1
     8d4:	0f 92       	push	r0
     8d6:	0f b6       	in	r0, 0x3f	; 63
     8d8:	0f 92       	push	r0
     8da:	11 24       	eor	r1, r1
     8dc:	2f 93       	push	r18
     8de:	3f 93       	push	r19
     8e0:	4f 93       	push	r20
     8e2:	5f 93       	push	r21
     8e4:	6f 93       	push	r22
     8e6:	7f 93       	push	r23
     8e8:	8f 93       	push	r24
     8ea:	9f 93       	push	r25
     8ec:	af 93       	push	r26
     8ee:	bf 93       	push	r27
     8f0:	ef 93       	push	r30
     8f2:	ff 93       	push	r31
	systimer_callback();
     8f4:	0e 94 00 02 	call	0x400	; 0x400 <systimer_callback>
}
     8f8:	ff 91       	pop	r31
     8fa:	ef 91       	pop	r30
     8fc:	bf 91       	pop	r27
     8fe:	af 91       	pop	r26
     900:	9f 91       	pop	r25
     902:	8f 91       	pop	r24
     904:	7f 91       	pop	r23
     906:	6f 91       	pop	r22
     908:	5f 91       	pop	r21
     90a:	4f 91       	pop	r20
     90c:	3f 91       	pop	r19
     90e:	2f 91       	pop	r18
     910:	0f 90       	pop	r0
     912:	0f be       	out	0x3f, r0	; 63
     914:	0f 90       	pop	r0
     916:	1f 90       	pop	r1
     918:	18 95       	reti

0000091a <TWI_init>:
     91a:	84 e2       	ldi	r24, 0x24	; 36
     91c:	80 b9       	out	0x00, r24	; 0
     91e:	08 95       	ret

00000920 <TWI_stop>:
     920:	84 e9       	ldi	r24, 0x94	; 148
     922:	86 bf       	out	0x36, r24	; 54
     924:	08 95       	ret

00000926 <TWI_wait>:
     926:	06 b6       	in	r0, 0x36	; 54
     928:	07 fe       	sbrs	r0, 7
     92a:	fd cf       	rjmp	.-6      	; 0x926 <TWI_wait>
     92c:	08 95       	ret

0000092e <TWI_start>:
     92e:	84 ea       	ldi	r24, 0xA4	; 164
     930:	86 bf       	out	0x36, r24	; 54
     932:	0e 94 93 04 	call	0x926	; 0x926 <TWI_wait>
     936:	08 95       	ret

00000938 <TWI_write>:
     938:	83 b9       	out	0x03, r24	; 3
     93a:	84 e8       	ldi	r24, 0x84	; 132
     93c:	86 bf       	out	0x36, r24	; 54
     93e:	0e 94 93 04 	call	0x926	; 0x926 <TWI_wait>
     942:	08 95       	ret

00000944 <vfprintf>:
     944:	a0 e1       	ldi	r26, 0x10	; 16
     946:	b0 e0       	ldi	r27, 0x00	; 0
     948:	e8 ea       	ldi	r30, 0xA8	; 168
     94a:	f4 e0       	ldi	r31, 0x04	; 4
     94c:	0c 94 5c 08 	jmp	0x10b8	; 0x10b8 <__prologue_saves__>
     950:	7c 01       	movw	r14, r24
     952:	1b 01       	movw	r2, r22
     954:	6a 01       	movw	r12, r20
     956:	fc 01       	movw	r30, r24
     958:	17 82       	std	Z+7, r1	; 0x07
     95a:	16 82       	std	Z+6, r1	; 0x06
     95c:	83 81       	ldd	r24, Z+3	; 0x03
     95e:	81 ff       	sbrs	r24, 1
     960:	44 c3       	rjmp	.+1672   	; 0xfea <vfprintf+0x6a6>
     962:	9e 01       	movw	r18, r28
     964:	2f 5f       	subi	r18, 0xFF	; 255
     966:	3f 4f       	sbci	r19, 0xFF	; 255
     968:	39 01       	movw	r6, r18
     96a:	f7 01       	movw	r30, r14
     96c:	93 81       	ldd	r25, Z+3	; 0x03
     96e:	f1 01       	movw	r30, r2
     970:	93 fd       	sbrc	r25, 3
     972:	85 91       	lpm	r24, Z+
     974:	93 ff       	sbrs	r25, 3
     976:	81 91       	ld	r24, Z+
     978:	1f 01       	movw	r2, r30
     97a:	88 23       	and	r24, r24
     97c:	09 f4       	brne	.+2      	; 0x980 <vfprintf+0x3c>
     97e:	31 c3       	rjmp	.+1634   	; 0xfe2 <vfprintf+0x69e>
     980:	85 32       	cpi	r24, 0x25	; 37
     982:	39 f4       	brne	.+14     	; 0x992 <vfprintf+0x4e>
     984:	93 fd       	sbrc	r25, 3
     986:	85 91       	lpm	r24, Z+
     988:	93 ff       	sbrs	r25, 3
     98a:	81 91       	ld	r24, Z+
     98c:	1f 01       	movw	r2, r30
     98e:	85 32       	cpi	r24, 0x25	; 37
     990:	39 f4       	brne	.+14     	; 0x9a0 <vfprintf+0x5c>
     992:	b7 01       	movw	r22, r14
     994:	90 e0       	ldi	r25, 0x00	; 0
     996:	0e 94 ab 09 	call	0x1356	; 0x1356 <fputc>
     99a:	56 01       	movw	r10, r12
     99c:	65 01       	movw	r12, r10
     99e:	e5 cf       	rjmp	.-54     	; 0x96a <vfprintf+0x26>
     9a0:	10 e0       	ldi	r17, 0x00	; 0
     9a2:	51 2c       	mov	r5, r1
     9a4:	91 2c       	mov	r9, r1
     9a6:	ff e1       	ldi	r31, 0x1F	; 31
     9a8:	f9 15       	cp	r31, r9
     9aa:	d8 f0       	brcs	.+54     	; 0x9e2 <vfprintf+0x9e>
     9ac:	8b 32       	cpi	r24, 0x2B	; 43
     9ae:	79 f0       	breq	.+30     	; 0x9ce <vfprintf+0x8a>
     9b0:	38 f4       	brcc	.+14     	; 0x9c0 <vfprintf+0x7c>
     9b2:	80 32       	cpi	r24, 0x20	; 32
     9b4:	79 f0       	breq	.+30     	; 0x9d4 <vfprintf+0x90>
     9b6:	83 32       	cpi	r24, 0x23	; 35
     9b8:	a1 f4       	brne	.+40     	; 0x9e2 <vfprintf+0x9e>
     9ba:	f9 2d       	mov	r31, r9
     9bc:	f0 61       	ori	r31, 0x10	; 16
     9be:	2e c0       	rjmp	.+92     	; 0xa1c <vfprintf+0xd8>
     9c0:	8d 32       	cpi	r24, 0x2D	; 45
     9c2:	61 f0       	breq	.+24     	; 0x9dc <vfprintf+0x98>
     9c4:	80 33       	cpi	r24, 0x30	; 48
     9c6:	69 f4       	brne	.+26     	; 0x9e2 <vfprintf+0x9e>
     9c8:	29 2d       	mov	r18, r9
     9ca:	21 60       	ori	r18, 0x01	; 1
     9cc:	2d c0       	rjmp	.+90     	; 0xa28 <vfprintf+0xe4>
     9ce:	39 2d       	mov	r19, r9
     9d0:	32 60       	ori	r19, 0x02	; 2
     9d2:	93 2e       	mov	r9, r19
     9d4:	89 2d       	mov	r24, r9
     9d6:	84 60       	ori	r24, 0x04	; 4
     9d8:	98 2e       	mov	r9, r24
     9da:	2a c0       	rjmp	.+84     	; 0xa30 <vfprintf+0xec>
     9dc:	e9 2d       	mov	r30, r9
     9de:	e8 60       	ori	r30, 0x08	; 8
     9e0:	15 c0       	rjmp	.+42     	; 0xa0c <vfprintf+0xc8>
     9e2:	97 fc       	sbrc	r9, 7
     9e4:	2d c0       	rjmp	.+90     	; 0xa40 <vfprintf+0xfc>
     9e6:	20 ed       	ldi	r18, 0xD0	; 208
     9e8:	28 0f       	add	r18, r24
     9ea:	2a 30       	cpi	r18, 0x0A	; 10
     9ec:	88 f4       	brcc	.+34     	; 0xa10 <vfprintf+0xcc>
     9ee:	96 fe       	sbrs	r9, 6
     9f0:	06 c0       	rjmp	.+12     	; 0x9fe <vfprintf+0xba>
     9f2:	3a e0       	ldi	r19, 0x0A	; 10
     9f4:	13 9f       	mul	r17, r19
     9f6:	20 0d       	add	r18, r0
     9f8:	11 24       	eor	r1, r1
     9fa:	12 2f       	mov	r17, r18
     9fc:	19 c0       	rjmp	.+50     	; 0xa30 <vfprintf+0xec>
     9fe:	8a e0       	ldi	r24, 0x0A	; 10
     a00:	58 9e       	mul	r5, r24
     a02:	20 0d       	add	r18, r0
     a04:	11 24       	eor	r1, r1
     a06:	52 2e       	mov	r5, r18
     a08:	e9 2d       	mov	r30, r9
     a0a:	e0 62       	ori	r30, 0x20	; 32
     a0c:	9e 2e       	mov	r9, r30
     a0e:	10 c0       	rjmp	.+32     	; 0xa30 <vfprintf+0xec>
     a10:	8e 32       	cpi	r24, 0x2E	; 46
     a12:	31 f4       	brne	.+12     	; 0xa20 <vfprintf+0xdc>
     a14:	96 fc       	sbrc	r9, 6
     a16:	e5 c2       	rjmp	.+1482   	; 0xfe2 <vfprintf+0x69e>
     a18:	f9 2d       	mov	r31, r9
     a1a:	f0 64       	ori	r31, 0x40	; 64
     a1c:	9f 2e       	mov	r9, r31
     a1e:	08 c0       	rjmp	.+16     	; 0xa30 <vfprintf+0xec>
     a20:	8c 36       	cpi	r24, 0x6C	; 108
     a22:	21 f4       	brne	.+8      	; 0xa2c <vfprintf+0xe8>
     a24:	29 2d       	mov	r18, r9
     a26:	20 68       	ori	r18, 0x80	; 128
     a28:	92 2e       	mov	r9, r18
     a2a:	02 c0       	rjmp	.+4      	; 0xa30 <vfprintf+0xec>
     a2c:	88 36       	cpi	r24, 0x68	; 104
     a2e:	41 f4       	brne	.+16     	; 0xa40 <vfprintf+0xfc>
     a30:	f1 01       	movw	r30, r2
     a32:	93 fd       	sbrc	r25, 3
     a34:	85 91       	lpm	r24, Z+
     a36:	93 ff       	sbrs	r25, 3
     a38:	81 91       	ld	r24, Z+
     a3a:	1f 01       	movw	r2, r30
     a3c:	81 11       	cpse	r24, r1
     a3e:	b3 cf       	rjmp	.-154    	; 0x9a6 <vfprintf+0x62>
     a40:	9b eb       	ldi	r25, 0xBB	; 187
     a42:	98 0f       	add	r25, r24
     a44:	93 30       	cpi	r25, 0x03	; 3
     a46:	20 f4       	brcc	.+8      	; 0xa50 <vfprintf+0x10c>
     a48:	99 2d       	mov	r25, r9
     a4a:	90 61       	ori	r25, 0x10	; 16
     a4c:	80 5e       	subi	r24, 0xE0	; 224
     a4e:	07 c0       	rjmp	.+14     	; 0xa5e <vfprintf+0x11a>
     a50:	9b e9       	ldi	r25, 0x9B	; 155
     a52:	98 0f       	add	r25, r24
     a54:	93 30       	cpi	r25, 0x03	; 3
     a56:	08 f0       	brcs	.+2      	; 0xa5a <vfprintf+0x116>
     a58:	66 c1       	rjmp	.+716    	; 0xd26 <vfprintf+0x3e2>
     a5a:	99 2d       	mov	r25, r9
     a5c:	9f 7e       	andi	r25, 0xEF	; 239
     a5e:	96 ff       	sbrs	r25, 6
     a60:	16 e0       	ldi	r17, 0x06	; 6
     a62:	9f 73       	andi	r25, 0x3F	; 63
     a64:	99 2e       	mov	r9, r25
     a66:	85 36       	cpi	r24, 0x65	; 101
     a68:	19 f4       	brne	.+6      	; 0xa70 <vfprintf+0x12c>
     a6a:	90 64       	ori	r25, 0x40	; 64
     a6c:	99 2e       	mov	r9, r25
     a6e:	08 c0       	rjmp	.+16     	; 0xa80 <vfprintf+0x13c>
     a70:	86 36       	cpi	r24, 0x66	; 102
     a72:	21 f4       	brne	.+8      	; 0xa7c <vfprintf+0x138>
     a74:	39 2f       	mov	r19, r25
     a76:	30 68       	ori	r19, 0x80	; 128
     a78:	93 2e       	mov	r9, r19
     a7a:	02 c0       	rjmp	.+4      	; 0xa80 <vfprintf+0x13c>
     a7c:	11 11       	cpse	r17, r1
     a7e:	11 50       	subi	r17, 0x01	; 1
     a80:	97 fe       	sbrs	r9, 7
     a82:	07 c0       	rjmp	.+14     	; 0xa92 <vfprintf+0x14e>
     a84:	1c 33       	cpi	r17, 0x3C	; 60
     a86:	50 f4       	brcc	.+20     	; 0xa9c <vfprintf+0x158>
     a88:	44 24       	eor	r4, r4
     a8a:	43 94       	inc	r4
     a8c:	41 0e       	add	r4, r17
     a8e:	27 e0       	ldi	r18, 0x07	; 7
     a90:	0b c0       	rjmp	.+22     	; 0xaa8 <vfprintf+0x164>
     a92:	18 30       	cpi	r17, 0x08	; 8
     a94:	38 f0       	brcs	.+14     	; 0xaa4 <vfprintf+0x160>
     a96:	27 e0       	ldi	r18, 0x07	; 7
     a98:	17 e0       	ldi	r17, 0x07	; 7
     a9a:	05 c0       	rjmp	.+10     	; 0xaa6 <vfprintf+0x162>
     a9c:	27 e0       	ldi	r18, 0x07	; 7
     a9e:	9c e3       	ldi	r25, 0x3C	; 60
     aa0:	49 2e       	mov	r4, r25
     aa2:	02 c0       	rjmp	.+4      	; 0xaa8 <vfprintf+0x164>
     aa4:	21 2f       	mov	r18, r17
     aa6:	41 2c       	mov	r4, r1
     aa8:	56 01       	movw	r10, r12
     aaa:	84 e0       	ldi	r24, 0x04	; 4
     aac:	a8 0e       	add	r10, r24
     aae:	b1 1c       	adc	r11, r1
     ab0:	f6 01       	movw	r30, r12
     ab2:	60 81       	ld	r22, Z
     ab4:	71 81       	ldd	r23, Z+1	; 0x01
     ab6:	82 81       	ldd	r24, Z+2	; 0x02
     ab8:	93 81       	ldd	r25, Z+3	; 0x03
     aba:	04 2d       	mov	r16, r4
     abc:	a3 01       	movw	r20, r6
     abe:	0e 94 a2 08 	call	0x1144	; 0x1144 <__ftoa_engine>
     ac2:	6c 01       	movw	r12, r24
     ac4:	f9 81       	ldd	r31, Y+1	; 0x01
     ac6:	fc 87       	std	Y+12, r31	; 0x0c
     ac8:	f0 ff       	sbrs	r31, 0
     aca:	02 c0       	rjmp	.+4      	; 0xad0 <vfprintf+0x18c>
     acc:	f3 ff       	sbrs	r31, 3
     ace:	06 c0       	rjmp	.+12     	; 0xadc <vfprintf+0x198>
     ad0:	91 fc       	sbrc	r9, 1
     ad2:	06 c0       	rjmp	.+12     	; 0xae0 <vfprintf+0x19c>
     ad4:	92 fe       	sbrs	r9, 2
     ad6:	06 c0       	rjmp	.+12     	; 0xae4 <vfprintf+0x1a0>
     ad8:	00 e2       	ldi	r16, 0x20	; 32
     ada:	05 c0       	rjmp	.+10     	; 0xae6 <vfprintf+0x1a2>
     adc:	0d e2       	ldi	r16, 0x2D	; 45
     ade:	03 c0       	rjmp	.+6      	; 0xae6 <vfprintf+0x1a2>
     ae0:	0b e2       	ldi	r16, 0x2B	; 43
     ae2:	01 c0       	rjmp	.+2      	; 0xae6 <vfprintf+0x1a2>
     ae4:	00 e0       	ldi	r16, 0x00	; 0
     ae6:	8c 85       	ldd	r24, Y+12	; 0x0c
     ae8:	8c 70       	andi	r24, 0x0C	; 12
     aea:	19 f0       	breq	.+6      	; 0xaf2 <vfprintf+0x1ae>
     aec:	01 11       	cpse	r16, r1
     aee:	5a c2       	rjmp	.+1204   	; 0xfa4 <vfprintf+0x660>
     af0:	9b c2       	rjmp	.+1334   	; 0x1028 <vfprintf+0x6e4>
     af2:	97 fe       	sbrs	r9, 7
     af4:	10 c0       	rjmp	.+32     	; 0xb16 <vfprintf+0x1d2>
     af6:	4c 0c       	add	r4, r12
     af8:	fc 85       	ldd	r31, Y+12	; 0x0c
     afa:	f4 ff       	sbrs	r31, 4
     afc:	04 c0       	rjmp	.+8      	; 0xb06 <vfprintf+0x1c2>
     afe:	8a 81       	ldd	r24, Y+2	; 0x02
     b00:	81 33       	cpi	r24, 0x31	; 49
     b02:	09 f4       	brne	.+2      	; 0xb06 <vfprintf+0x1c2>
     b04:	4a 94       	dec	r4
     b06:	14 14       	cp	r1, r4
     b08:	74 f5       	brge	.+92     	; 0xb66 <vfprintf+0x222>
     b0a:	28 e0       	ldi	r18, 0x08	; 8
     b0c:	24 15       	cp	r18, r4
     b0e:	78 f5       	brcc	.+94     	; 0xb6e <vfprintf+0x22a>
     b10:	88 e0       	ldi	r24, 0x08	; 8
     b12:	48 2e       	mov	r4, r24
     b14:	2c c0       	rjmp	.+88     	; 0xb6e <vfprintf+0x22a>
     b16:	96 fc       	sbrc	r9, 6
     b18:	2a c0       	rjmp	.+84     	; 0xb6e <vfprintf+0x22a>
     b1a:	81 2f       	mov	r24, r17
     b1c:	90 e0       	ldi	r25, 0x00	; 0
     b1e:	8c 15       	cp	r24, r12
     b20:	9d 05       	cpc	r25, r13
     b22:	9c f0       	brlt	.+38     	; 0xb4a <vfprintf+0x206>
     b24:	3c ef       	ldi	r19, 0xFC	; 252
     b26:	c3 16       	cp	r12, r19
     b28:	3f ef       	ldi	r19, 0xFF	; 255
     b2a:	d3 06       	cpc	r13, r19
     b2c:	74 f0       	brlt	.+28     	; 0xb4a <vfprintf+0x206>
     b2e:	89 2d       	mov	r24, r9
     b30:	80 68       	ori	r24, 0x80	; 128
     b32:	98 2e       	mov	r9, r24
     b34:	0a c0       	rjmp	.+20     	; 0xb4a <vfprintf+0x206>
     b36:	e2 e0       	ldi	r30, 0x02	; 2
     b38:	f0 e0       	ldi	r31, 0x00	; 0
     b3a:	ec 0f       	add	r30, r28
     b3c:	fd 1f       	adc	r31, r29
     b3e:	e1 0f       	add	r30, r17
     b40:	f1 1d       	adc	r31, r1
     b42:	80 81       	ld	r24, Z
     b44:	80 33       	cpi	r24, 0x30	; 48
     b46:	19 f4       	brne	.+6      	; 0xb4e <vfprintf+0x20a>
     b48:	11 50       	subi	r17, 0x01	; 1
     b4a:	11 11       	cpse	r17, r1
     b4c:	f4 cf       	rjmp	.-24     	; 0xb36 <vfprintf+0x1f2>
     b4e:	97 fe       	sbrs	r9, 7
     b50:	0e c0       	rjmp	.+28     	; 0xb6e <vfprintf+0x22a>
     b52:	44 24       	eor	r4, r4
     b54:	43 94       	inc	r4
     b56:	41 0e       	add	r4, r17
     b58:	81 2f       	mov	r24, r17
     b5a:	90 e0       	ldi	r25, 0x00	; 0
     b5c:	c8 16       	cp	r12, r24
     b5e:	d9 06       	cpc	r13, r25
     b60:	2c f4       	brge	.+10     	; 0xb6c <vfprintf+0x228>
     b62:	1c 19       	sub	r17, r12
     b64:	04 c0       	rjmp	.+8      	; 0xb6e <vfprintf+0x22a>
     b66:	44 24       	eor	r4, r4
     b68:	43 94       	inc	r4
     b6a:	01 c0       	rjmp	.+2      	; 0xb6e <vfprintf+0x22a>
     b6c:	10 e0       	ldi	r17, 0x00	; 0
     b6e:	97 fe       	sbrs	r9, 7
     b70:	06 c0       	rjmp	.+12     	; 0xb7e <vfprintf+0x23a>
     b72:	1c 14       	cp	r1, r12
     b74:	1d 04       	cpc	r1, r13
     b76:	34 f4       	brge	.+12     	; 0xb84 <vfprintf+0x240>
     b78:	c6 01       	movw	r24, r12
     b7a:	01 96       	adiw	r24, 0x01	; 1
     b7c:	05 c0       	rjmp	.+10     	; 0xb88 <vfprintf+0x244>
     b7e:	85 e0       	ldi	r24, 0x05	; 5
     b80:	90 e0       	ldi	r25, 0x00	; 0
     b82:	02 c0       	rjmp	.+4      	; 0xb88 <vfprintf+0x244>
     b84:	81 e0       	ldi	r24, 0x01	; 1
     b86:	90 e0       	ldi	r25, 0x00	; 0
     b88:	01 11       	cpse	r16, r1
     b8a:	01 96       	adiw	r24, 0x01	; 1
     b8c:	11 23       	and	r17, r17
     b8e:	31 f0       	breq	.+12     	; 0xb9c <vfprintf+0x258>
     b90:	21 2f       	mov	r18, r17
     b92:	30 e0       	ldi	r19, 0x00	; 0
     b94:	2f 5f       	subi	r18, 0xFF	; 255
     b96:	3f 4f       	sbci	r19, 0xFF	; 255
     b98:	82 0f       	add	r24, r18
     b9a:	93 1f       	adc	r25, r19
     b9c:	25 2d       	mov	r18, r5
     b9e:	30 e0       	ldi	r19, 0x00	; 0
     ba0:	82 17       	cp	r24, r18
     ba2:	93 07       	cpc	r25, r19
     ba4:	14 f4       	brge	.+4      	; 0xbaa <vfprintf+0x266>
     ba6:	58 1a       	sub	r5, r24
     ba8:	01 c0       	rjmp	.+2      	; 0xbac <vfprintf+0x268>
     baa:	51 2c       	mov	r5, r1
     bac:	89 2d       	mov	r24, r9
     bae:	89 70       	andi	r24, 0x09	; 9
     bb0:	49 f4       	brne	.+18     	; 0xbc4 <vfprintf+0x280>
     bb2:	55 20       	and	r5, r5
     bb4:	39 f0       	breq	.+14     	; 0xbc4 <vfprintf+0x280>
     bb6:	b7 01       	movw	r22, r14
     bb8:	80 e2       	ldi	r24, 0x20	; 32
     bba:	90 e0       	ldi	r25, 0x00	; 0
     bbc:	0e 94 ab 09 	call	0x1356	; 0x1356 <fputc>
     bc0:	5a 94       	dec	r5
     bc2:	f7 cf       	rjmp	.-18     	; 0xbb2 <vfprintf+0x26e>
     bc4:	00 23       	and	r16, r16
     bc6:	29 f0       	breq	.+10     	; 0xbd2 <vfprintf+0x28e>
     bc8:	b7 01       	movw	r22, r14
     bca:	80 2f       	mov	r24, r16
     bcc:	90 e0       	ldi	r25, 0x00	; 0
     bce:	0e 94 ab 09 	call	0x1356	; 0x1356 <fputc>
     bd2:	93 fc       	sbrc	r9, 3
     bd4:	09 c0       	rjmp	.+18     	; 0xbe8 <vfprintf+0x2a4>
     bd6:	55 20       	and	r5, r5
     bd8:	39 f0       	breq	.+14     	; 0xbe8 <vfprintf+0x2a4>
     bda:	b7 01       	movw	r22, r14
     bdc:	80 e3       	ldi	r24, 0x30	; 48
     bde:	90 e0       	ldi	r25, 0x00	; 0
     be0:	0e 94 ab 09 	call	0x1356	; 0x1356 <fputc>
     be4:	5a 94       	dec	r5
     be6:	f7 cf       	rjmp	.-18     	; 0xbd6 <vfprintf+0x292>
     be8:	97 fe       	sbrs	r9, 7
     bea:	4c c0       	rjmp	.+152    	; 0xc84 <vfprintf+0x340>
     bec:	46 01       	movw	r8, r12
     bee:	d7 fe       	sbrs	r13, 7
     bf0:	02 c0       	rjmp	.+4      	; 0xbf6 <vfprintf+0x2b2>
     bf2:	81 2c       	mov	r8, r1
     bf4:	91 2c       	mov	r9, r1
     bf6:	c6 01       	movw	r24, r12
     bf8:	88 19       	sub	r24, r8
     bfa:	99 09       	sbc	r25, r9
     bfc:	f3 01       	movw	r30, r6
     bfe:	e8 0f       	add	r30, r24
     c00:	f9 1f       	adc	r31, r25
     c02:	fe 87       	std	Y+14, r31	; 0x0e
     c04:	ed 87       	std	Y+13, r30	; 0x0d
     c06:	96 01       	movw	r18, r12
     c08:	24 19       	sub	r18, r4
     c0a:	31 09       	sbc	r19, r1
     c0c:	38 8b       	std	Y+16, r19	; 0x10
     c0e:	2f 87       	std	Y+15, r18	; 0x0f
     c10:	01 2f       	mov	r16, r17
     c12:	10 e0       	ldi	r17, 0x00	; 0
     c14:	11 95       	neg	r17
     c16:	01 95       	neg	r16
     c18:	11 09       	sbc	r17, r1
     c1a:	3f ef       	ldi	r19, 0xFF	; 255
     c1c:	83 16       	cp	r8, r19
     c1e:	93 06       	cpc	r9, r19
     c20:	29 f4       	brne	.+10     	; 0xc2c <vfprintf+0x2e8>
     c22:	b7 01       	movw	r22, r14
     c24:	8e e2       	ldi	r24, 0x2E	; 46
     c26:	90 e0       	ldi	r25, 0x00	; 0
     c28:	0e 94 ab 09 	call	0x1356	; 0x1356 <fputc>
     c2c:	c8 14       	cp	r12, r8
     c2e:	d9 04       	cpc	r13, r9
     c30:	4c f0       	brlt	.+18     	; 0xc44 <vfprintf+0x300>
     c32:	8f 85       	ldd	r24, Y+15	; 0x0f
     c34:	98 89       	ldd	r25, Y+16	; 0x10
     c36:	88 15       	cp	r24, r8
     c38:	99 05       	cpc	r25, r9
     c3a:	24 f4       	brge	.+8      	; 0xc44 <vfprintf+0x300>
     c3c:	ed 85       	ldd	r30, Y+13	; 0x0d
     c3e:	fe 85       	ldd	r31, Y+14	; 0x0e
     c40:	81 81       	ldd	r24, Z+1	; 0x01
     c42:	01 c0       	rjmp	.+2      	; 0xc46 <vfprintf+0x302>
     c44:	80 e3       	ldi	r24, 0x30	; 48
     c46:	f1 e0       	ldi	r31, 0x01	; 1
     c48:	8f 1a       	sub	r8, r31
     c4a:	91 08       	sbc	r9, r1
     c4c:	2d 85       	ldd	r18, Y+13	; 0x0d
     c4e:	3e 85       	ldd	r19, Y+14	; 0x0e
     c50:	2f 5f       	subi	r18, 0xFF	; 255
     c52:	3f 4f       	sbci	r19, 0xFF	; 255
     c54:	3e 87       	std	Y+14, r19	; 0x0e
     c56:	2d 87       	std	Y+13, r18	; 0x0d
     c58:	80 16       	cp	r8, r16
     c5a:	91 06       	cpc	r9, r17
     c5c:	2c f0       	brlt	.+10     	; 0xc68 <vfprintf+0x324>
     c5e:	b7 01       	movw	r22, r14
     c60:	90 e0       	ldi	r25, 0x00	; 0
     c62:	0e 94 ab 09 	call	0x1356	; 0x1356 <fputc>
     c66:	d9 cf       	rjmp	.-78     	; 0xc1a <vfprintf+0x2d6>
     c68:	c8 14       	cp	r12, r8
     c6a:	d9 04       	cpc	r13, r9
     c6c:	41 f4       	brne	.+16     	; 0xc7e <vfprintf+0x33a>
     c6e:	9a 81       	ldd	r25, Y+2	; 0x02
     c70:	96 33       	cpi	r25, 0x36	; 54
     c72:	20 f4       	brcc	.+8      	; 0xc7c <vfprintf+0x338>
     c74:	95 33       	cpi	r25, 0x35	; 53
     c76:	19 f4       	brne	.+6      	; 0xc7e <vfprintf+0x33a>
     c78:	3c 85       	ldd	r19, Y+12	; 0x0c
     c7a:	34 ff       	sbrs	r19, 4
     c7c:	81 e3       	ldi	r24, 0x31	; 49
     c7e:	b7 01       	movw	r22, r14
     c80:	90 e0       	ldi	r25, 0x00	; 0
     c82:	4e c0       	rjmp	.+156    	; 0xd20 <vfprintf+0x3dc>
     c84:	8a 81       	ldd	r24, Y+2	; 0x02
     c86:	81 33       	cpi	r24, 0x31	; 49
     c88:	19 f0       	breq	.+6      	; 0xc90 <vfprintf+0x34c>
     c8a:	9c 85       	ldd	r25, Y+12	; 0x0c
     c8c:	9f 7e       	andi	r25, 0xEF	; 239
     c8e:	9c 87       	std	Y+12, r25	; 0x0c
     c90:	b7 01       	movw	r22, r14
     c92:	90 e0       	ldi	r25, 0x00	; 0
     c94:	0e 94 ab 09 	call	0x1356	; 0x1356 <fputc>
     c98:	11 11       	cpse	r17, r1
     c9a:	05 c0       	rjmp	.+10     	; 0xca6 <vfprintf+0x362>
     c9c:	94 fc       	sbrc	r9, 4
     c9e:	18 c0       	rjmp	.+48     	; 0xcd0 <vfprintf+0x38c>
     ca0:	85 e6       	ldi	r24, 0x65	; 101
     ca2:	90 e0       	ldi	r25, 0x00	; 0
     ca4:	17 c0       	rjmp	.+46     	; 0xcd4 <vfprintf+0x390>
     ca6:	b7 01       	movw	r22, r14
     ca8:	8e e2       	ldi	r24, 0x2E	; 46
     caa:	90 e0       	ldi	r25, 0x00	; 0
     cac:	0e 94 ab 09 	call	0x1356	; 0x1356 <fputc>
     cb0:	1e 5f       	subi	r17, 0xFE	; 254
     cb2:	82 e0       	ldi	r24, 0x02	; 2
     cb4:	01 e0       	ldi	r16, 0x01	; 1
     cb6:	08 0f       	add	r16, r24
     cb8:	f3 01       	movw	r30, r6
     cba:	e8 0f       	add	r30, r24
     cbc:	f1 1d       	adc	r31, r1
     cbe:	80 81       	ld	r24, Z
     cc0:	b7 01       	movw	r22, r14
     cc2:	90 e0       	ldi	r25, 0x00	; 0
     cc4:	0e 94 ab 09 	call	0x1356	; 0x1356 <fputc>
     cc8:	80 2f       	mov	r24, r16
     cca:	01 13       	cpse	r16, r17
     ccc:	f3 cf       	rjmp	.-26     	; 0xcb4 <vfprintf+0x370>
     cce:	e6 cf       	rjmp	.-52     	; 0xc9c <vfprintf+0x358>
     cd0:	85 e4       	ldi	r24, 0x45	; 69
     cd2:	90 e0       	ldi	r25, 0x00	; 0
     cd4:	b7 01       	movw	r22, r14
     cd6:	0e 94 ab 09 	call	0x1356	; 0x1356 <fputc>
     cda:	d7 fc       	sbrc	r13, 7
     cdc:	06 c0       	rjmp	.+12     	; 0xcea <vfprintf+0x3a6>
     cde:	c1 14       	cp	r12, r1
     ce0:	d1 04       	cpc	r13, r1
     ce2:	41 f4       	brne	.+16     	; 0xcf4 <vfprintf+0x3b0>
     ce4:	ec 85       	ldd	r30, Y+12	; 0x0c
     ce6:	e4 ff       	sbrs	r30, 4
     ce8:	05 c0       	rjmp	.+10     	; 0xcf4 <vfprintf+0x3b0>
     cea:	d1 94       	neg	r13
     cec:	c1 94       	neg	r12
     cee:	d1 08       	sbc	r13, r1
     cf0:	8d e2       	ldi	r24, 0x2D	; 45
     cf2:	01 c0       	rjmp	.+2      	; 0xcf6 <vfprintf+0x3b2>
     cf4:	8b e2       	ldi	r24, 0x2B	; 43
     cf6:	b7 01       	movw	r22, r14
     cf8:	90 e0       	ldi	r25, 0x00	; 0
     cfa:	0e 94 ab 09 	call	0x1356	; 0x1356 <fputc>
     cfe:	80 e3       	ldi	r24, 0x30	; 48
     d00:	2a e0       	ldi	r18, 0x0A	; 10
     d02:	c2 16       	cp	r12, r18
     d04:	d1 04       	cpc	r13, r1
     d06:	2c f0       	brlt	.+10     	; 0xd12 <vfprintf+0x3ce>
     d08:	8f 5f       	subi	r24, 0xFF	; 255
     d0a:	fa e0       	ldi	r31, 0x0A	; 10
     d0c:	cf 1a       	sub	r12, r31
     d0e:	d1 08       	sbc	r13, r1
     d10:	f7 cf       	rjmp	.-18     	; 0xd00 <vfprintf+0x3bc>
     d12:	b7 01       	movw	r22, r14
     d14:	90 e0       	ldi	r25, 0x00	; 0
     d16:	0e 94 ab 09 	call	0x1356	; 0x1356 <fputc>
     d1a:	b7 01       	movw	r22, r14
     d1c:	c6 01       	movw	r24, r12
     d1e:	c0 96       	adiw	r24, 0x30	; 48
     d20:	0e 94 ab 09 	call	0x1356	; 0x1356 <fputc>
     d24:	54 c1       	rjmp	.+680    	; 0xfce <vfprintf+0x68a>
     d26:	83 36       	cpi	r24, 0x63	; 99
     d28:	31 f0       	breq	.+12     	; 0xd36 <vfprintf+0x3f2>
     d2a:	83 37       	cpi	r24, 0x73	; 115
     d2c:	79 f0       	breq	.+30     	; 0xd4c <vfprintf+0x408>
     d2e:	83 35       	cpi	r24, 0x53	; 83
     d30:	09 f0       	breq	.+2      	; 0xd34 <vfprintf+0x3f0>
     d32:	56 c0       	rjmp	.+172    	; 0xde0 <vfprintf+0x49c>
     d34:	20 c0       	rjmp	.+64     	; 0xd76 <vfprintf+0x432>
     d36:	56 01       	movw	r10, r12
     d38:	32 e0       	ldi	r19, 0x02	; 2
     d3a:	a3 0e       	add	r10, r19
     d3c:	b1 1c       	adc	r11, r1
     d3e:	f6 01       	movw	r30, r12
     d40:	80 81       	ld	r24, Z
     d42:	89 83       	std	Y+1, r24	; 0x01
     d44:	01 e0       	ldi	r16, 0x01	; 1
     d46:	10 e0       	ldi	r17, 0x00	; 0
     d48:	63 01       	movw	r12, r6
     d4a:	12 c0       	rjmp	.+36     	; 0xd70 <vfprintf+0x42c>
     d4c:	56 01       	movw	r10, r12
     d4e:	f2 e0       	ldi	r31, 0x02	; 2
     d50:	af 0e       	add	r10, r31
     d52:	b1 1c       	adc	r11, r1
     d54:	f6 01       	movw	r30, r12
     d56:	c0 80       	ld	r12, Z
     d58:	d1 80       	ldd	r13, Z+1	; 0x01
     d5a:	96 fe       	sbrs	r9, 6
     d5c:	03 c0       	rjmp	.+6      	; 0xd64 <vfprintf+0x420>
     d5e:	61 2f       	mov	r22, r17
     d60:	70 e0       	ldi	r23, 0x00	; 0
     d62:	02 c0       	rjmp	.+4      	; 0xd68 <vfprintf+0x424>
     d64:	6f ef       	ldi	r22, 0xFF	; 255
     d66:	7f ef       	ldi	r23, 0xFF	; 255
     d68:	c6 01       	movw	r24, r12
     d6a:	0e 94 85 09 	call	0x130a	; 0x130a <strnlen>
     d6e:	8c 01       	movw	r16, r24
     d70:	f9 2d       	mov	r31, r9
     d72:	ff 77       	andi	r31, 0x7F	; 127
     d74:	14 c0       	rjmp	.+40     	; 0xd9e <vfprintf+0x45a>
     d76:	56 01       	movw	r10, r12
     d78:	22 e0       	ldi	r18, 0x02	; 2
     d7a:	a2 0e       	add	r10, r18
     d7c:	b1 1c       	adc	r11, r1
     d7e:	f6 01       	movw	r30, r12
     d80:	c0 80       	ld	r12, Z
     d82:	d1 80       	ldd	r13, Z+1	; 0x01
     d84:	96 fe       	sbrs	r9, 6
     d86:	03 c0       	rjmp	.+6      	; 0xd8e <vfprintf+0x44a>
     d88:	61 2f       	mov	r22, r17
     d8a:	70 e0       	ldi	r23, 0x00	; 0
     d8c:	02 c0       	rjmp	.+4      	; 0xd92 <vfprintf+0x44e>
     d8e:	6f ef       	ldi	r22, 0xFF	; 255
     d90:	7f ef       	ldi	r23, 0xFF	; 255
     d92:	c6 01       	movw	r24, r12
     d94:	0e 94 7a 09 	call	0x12f4	; 0x12f4 <strnlen_P>
     d98:	8c 01       	movw	r16, r24
     d9a:	f9 2d       	mov	r31, r9
     d9c:	f0 68       	ori	r31, 0x80	; 128
     d9e:	9f 2e       	mov	r9, r31
     da0:	f3 fd       	sbrc	r31, 3
     da2:	1a c0       	rjmp	.+52     	; 0xdd8 <vfprintf+0x494>
     da4:	85 2d       	mov	r24, r5
     da6:	90 e0       	ldi	r25, 0x00	; 0
     da8:	08 17       	cp	r16, r24
     daa:	19 07       	cpc	r17, r25
     dac:	a8 f4       	brcc	.+42     	; 0xdd8 <vfprintf+0x494>
     dae:	b7 01       	movw	r22, r14
     db0:	80 e2       	ldi	r24, 0x20	; 32
     db2:	90 e0       	ldi	r25, 0x00	; 0
     db4:	0e 94 ab 09 	call	0x1356	; 0x1356 <fputc>
     db8:	5a 94       	dec	r5
     dba:	f4 cf       	rjmp	.-24     	; 0xda4 <vfprintf+0x460>
     dbc:	f6 01       	movw	r30, r12
     dbe:	97 fc       	sbrc	r9, 7
     dc0:	85 91       	lpm	r24, Z+
     dc2:	97 fe       	sbrs	r9, 7
     dc4:	81 91       	ld	r24, Z+
     dc6:	6f 01       	movw	r12, r30
     dc8:	b7 01       	movw	r22, r14
     dca:	90 e0       	ldi	r25, 0x00	; 0
     dcc:	0e 94 ab 09 	call	0x1356	; 0x1356 <fputc>
     dd0:	51 10       	cpse	r5, r1
     dd2:	5a 94       	dec	r5
     dd4:	01 50       	subi	r16, 0x01	; 1
     dd6:	11 09       	sbc	r17, r1
     dd8:	01 15       	cp	r16, r1
     dda:	11 05       	cpc	r17, r1
     ddc:	79 f7       	brne	.-34     	; 0xdbc <vfprintf+0x478>
     dde:	f7 c0       	rjmp	.+494    	; 0xfce <vfprintf+0x68a>
     de0:	84 36       	cpi	r24, 0x64	; 100
     de2:	11 f0       	breq	.+4      	; 0xde8 <vfprintf+0x4a4>
     de4:	89 36       	cpi	r24, 0x69	; 105
     de6:	61 f5       	brne	.+88     	; 0xe40 <vfprintf+0x4fc>
     de8:	56 01       	movw	r10, r12
     dea:	97 fe       	sbrs	r9, 7
     dec:	09 c0       	rjmp	.+18     	; 0xe00 <vfprintf+0x4bc>
     dee:	24 e0       	ldi	r18, 0x04	; 4
     df0:	a2 0e       	add	r10, r18
     df2:	b1 1c       	adc	r11, r1
     df4:	f6 01       	movw	r30, r12
     df6:	60 81       	ld	r22, Z
     df8:	71 81       	ldd	r23, Z+1	; 0x01
     dfa:	82 81       	ldd	r24, Z+2	; 0x02
     dfc:	93 81       	ldd	r25, Z+3	; 0x03
     dfe:	0a c0       	rjmp	.+20     	; 0xe14 <vfprintf+0x4d0>
     e00:	f2 e0       	ldi	r31, 0x02	; 2
     e02:	af 0e       	add	r10, r31
     e04:	b1 1c       	adc	r11, r1
     e06:	f6 01       	movw	r30, r12
     e08:	60 81       	ld	r22, Z
     e0a:	71 81       	ldd	r23, Z+1	; 0x01
     e0c:	07 2e       	mov	r0, r23
     e0e:	00 0c       	add	r0, r0
     e10:	88 0b       	sbc	r24, r24
     e12:	99 0b       	sbc	r25, r25
     e14:	f9 2d       	mov	r31, r9
     e16:	ff 76       	andi	r31, 0x6F	; 111
     e18:	9f 2e       	mov	r9, r31
     e1a:	97 ff       	sbrs	r25, 7
     e1c:	09 c0       	rjmp	.+18     	; 0xe30 <vfprintf+0x4ec>
     e1e:	90 95       	com	r25
     e20:	80 95       	com	r24
     e22:	70 95       	com	r23
     e24:	61 95       	neg	r22
     e26:	7f 4f       	sbci	r23, 0xFF	; 255
     e28:	8f 4f       	sbci	r24, 0xFF	; 255
     e2a:	9f 4f       	sbci	r25, 0xFF	; 255
     e2c:	f0 68       	ori	r31, 0x80	; 128
     e2e:	9f 2e       	mov	r9, r31
     e30:	2a e0       	ldi	r18, 0x0A	; 10
     e32:	30 e0       	ldi	r19, 0x00	; 0
     e34:	a3 01       	movw	r20, r6
     e36:	0e 94 e7 09 	call	0x13ce	; 0x13ce <__ultoa_invert>
     e3a:	c8 2e       	mov	r12, r24
     e3c:	c6 18       	sub	r12, r6
     e3e:	3f c0       	rjmp	.+126    	; 0xebe <vfprintf+0x57a>
     e40:	09 2d       	mov	r16, r9
     e42:	85 37       	cpi	r24, 0x75	; 117
     e44:	21 f4       	brne	.+8      	; 0xe4e <vfprintf+0x50a>
     e46:	0f 7e       	andi	r16, 0xEF	; 239
     e48:	2a e0       	ldi	r18, 0x0A	; 10
     e4a:	30 e0       	ldi	r19, 0x00	; 0
     e4c:	1d c0       	rjmp	.+58     	; 0xe88 <vfprintf+0x544>
     e4e:	09 7f       	andi	r16, 0xF9	; 249
     e50:	8f 36       	cpi	r24, 0x6F	; 111
     e52:	91 f0       	breq	.+36     	; 0xe78 <vfprintf+0x534>
     e54:	18 f4       	brcc	.+6      	; 0xe5c <vfprintf+0x518>
     e56:	88 35       	cpi	r24, 0x58	; 88
     e58:	59 f0       	breq	.+22     	; 0xe70 <vfprintf+0x52c>
     e5a:	c3 c0       	rjmp	.+390    	; 0xfe2 <vfprintf+0x69e>
     e5c:	80 37       	cpi	r24, 0x70	; 112
     e5e:	19 f0       	breq	.+6      	; 0xe66 <vfprintf+0x522>
     e60:	88 37       	cpi	r24, 0x78	; 120
     e62:	11 f0       	breq	.+4      	; 0xe68 <vfprintf+0x524>
     e64:	be c0       	rjmp	.+380    	; 0xfe2 <vfprintf+0x69e>
     e66:	00 61       	ori	r16, 0x10	; 16
     e68:	04 ff       	sbrs	r16, 4
     e6a:	09 c0       	rjmp	.+18     	; 0xe7e <vfprintf+0x53a>
     e6c:	04 60       	ori	r16, 0x04	; 4
     e6e:	07 c0       	rjmp	.+14     	; 0xe7e <vfprintf+0x53a>
     e70:	94 fe       	sbrs	r9, 4
     e72:	08 c0       	rjmp	.+16     	; 0xe84 <vfprintf+0x540>
     e74:	06 60       	ori	r16, 0x06	; 6
     e76:	06 c0       	rjmp	.+12     	; 0xe84 <vfprintf+0x540>
     e78:	28 e0       	ldi	r18, 0x08	; 8
     e7a:	30 e0       	ldi	r19, 0x00	; 0
     e7c:	05 c0       	rjmp	.+10     	; 0xe88 <vfprintf+0x544>
     e7e:	20 e1       	ldi	r18, 0x10	; 16
     e80:	30 e0       	ldi	r19, 0x00	; 0
     e82:	02 c0       	rjmp	.+4      	; 0xe88 <vfprintf+0x544>
     e84:	20 e1       	ldi	r18, 0x10	; 16
     e86:	32 e0       	ldi	r19, 0x02	; 2
     e88:	56 01       	movw	r10, r12
     e8a:	07 ff       	sbrs	r16, 7
     e8c:	09 c0       	rjmp	.+18     	; 0xea0 <vfprintf+0x55c>
     e8e:	84 e0       	ldi	r24, 0x04	; 4
     e90:	a8 0e       	add	r10, r24
     e92:	b1 1c       	adc	r11, r1
     e94:	f6 01       	movw	r30, r12
     e96:	60 81       	ld	r22, Z
     e98:	71 81       	ldd	r23, Z+1	; 0x01
     e9a:	82 81       	ldd	r24, Z+2	; 0x02
     e9c:	93 81       	ldd	r25, Z+3	; 0x03
     e9e:	08 c0       	rjmp	.+16     	; 0xeb0 <vfprintf+0x56c>
     ea0:	f2 e0       	ldi	r31, 0x02	; 2
     ea2:	af 0e       	add	r10, r31
     ea4:	b1 1c       	adc	r11, r1
     ea6:	f6 01       	movw	r30, r12
     ea8:	60 81       	ld	r22, Z
     eaa:	71 81       	ldd	r23, Z+1	; 0x01
     eac:	80 e0       	ldi	r24, 0x00	; 0
     eae:	90 e0       	ldi	r25, 0x00	; 0
     eb0:	a3 01       	movw	r20, r6
     eb2:	0e 94 e7 09 	call	0x13ce	; 0x13ce <__ultoa_invert>
     eb6:	c8 2e       	mov	r12, r24
     eb8:	c6 18       	sub	r12, r6
     eba:	0f 77       	andi	r16, 0x7F	; 127
     ebc:	90 2e       	mov	r9, r16
     ebe:	96 fe       	sbrs	r9, 6
     ec0:	0b c0       	rjmp	.+22     	; 0xed8 <vfprintf+0x594>
     ec2:	09 2d       	mov	r16, r9
     ec4:	0e 7f       	andi	r16, 0xFE	; 254
     ec6:	c1 16       	cp	r12, r17
     ec8:	50 f4       	brcc	.+20     	; 0xede <vfprintf+0x59a>
     eca:	94 fe       	sbrs	r9, 4
     ecc:	0a c0       	rjmp	.+20     	; 0xee2 <vfprintf+0x59e>
     ece:	92 fc       	sbrc	r9, 2
     ed0:	08 c0       	rjmp	.+16     	; 0xee2 <vfprintf+0x59e>
     ed2:	09 2d       	mov	r16, r9
     ed4:	0e 7e       	andi	r16, 0xEE	; 238
     ed6:	05 c0       	rjmp	.+10     	; 0xee2 <vfprintf+0x59e>
     ed8:	dc 2c       	mov	r13, r12
     eda:	09 2d       	mov	r16, r9
     edc:	03 c0       	rjmp	.+6      	; 0xee4 <vfprintf+0x5a0>
     ede:	dc 2c       	mov	r13, r12
     ee0:	01 c0       	rjmp	.+2      	; 0xee4 <vfprintf+0x5a0>
     ee2:	d1 2e       	mov	r13, r17
     ee4:	04 ff       	sbrs	r16, 4
     ee6:	0d c0       	rjmp	.+26     	; 0xf02 <vfprintf+0x5be>
     ee8:	fe 01       	movw	r30, r28
     eea:	ec 0d       	add	r30, r12
     eec:	f1 1d       	adc	r31, r1
     eee:	80 81       	ld	r24, Z
     ef0:	80 33       	cpi	r24, 0x30	; 48
     ef2:	11 f4       	brne	.+4      	; 0xef8 <vfprintf+0x5b4>
     ef4:	09 7e       	andi	r16, 0xE9	; 233
     ef6:	09 c0       	rjmp	.+18     	; 0xf0a <vfprintf+0x5c6>
     ef8:	02 ff       	sbrs	r16, 2
     efa:	06 c0       	rjmp	.+12     	; 0xf08 <vfprintf+0x5c4>
     efc:	d3 94       	inc	r13
     efe:	d3 94       	inc	r13
     f00:	04 c0       	rjmp	.+8      	; 0xf0a <vfprintf+0x5c6>
     f02:	80 2f       	mov	r24, r16
     f04:	86 78       	andi	r24, 0x86	; 134
     f06:	09 f0       	breq	.+2      	; 0xf0a <vfprintf+0x5c6>
     f08:	d3 94       	inc	r13
     f0a:	03 fd       	sbrc	r16, 3
     f0c:	11 c0       	rjmp	.+34     	; 0xf30 <vfprintf+0x5ec>
     f0e:	00 ff       	sbrs	r16, 0
     f10:	06 c0       	rjmp	.+12     	; 0xf1e <vfprintf+0x5da>
     f12:	1c 2d       	mov	r17, r12
     f14:	d5 14       	cp	r13, r5
     f16:	80 f4       	brcc	.+32     	; 0xf38 <vfprintf+0x5f4>
     f18:	15 0d       	add	r17, r5
     f1a:	1d 19       	sub	r17, r13
     f1c:	0d c0       	rjmp	.+26     	; 0xf38 <vfprintf+0x5f4>
     f1e:	d5 14       	cp	r13, r5
     f20:	58 f4       	brcc	.+22     	; 0xf38 <vfprintf+0x5f4>
     f22:	b7 01       	movw	r22, r14
     f24:	80 e2       	ldi	r24, 0x20	; 32
     f26:	90 e0       	ldi	r25, 0x00	; 0
     f28:	0e 94 ab 09 	call	0x1356	; 0x1356 <fputc>
     f2c:	d3 94       	inc	r13
     f2e:	f7 cf       	rjmp	.-18     	; 0xf1e <vfprintf+0x5da>
     f30:	d5 14       	cp	r13, r5
     f32:	10 f4       	brcc	.+4      	; 0xf38 <vfprintf+0x5f4>
     f34:	5d 18       	sub	r5, r13
     f36:	01 c0       	rjmp	.+2      	; 0xf3a <vfprintf+0x5f6>
     f38:	51 2c       	mov	r5, r1
     f3a:	04 ff       	sbrs	r16, 4
     f3c:	10 c0       	rjmp	.+32     	; 0xf5e <vfprintf+0x61a>
     f3e:	b7 01       	movw	r22, r14
     f40:	80 e3       	ldi	r24, 0x30	; 48
     f42:	90 e0       	ldi	r25, 0x00	; 0
     f44:	0e 94 ab 09 	call	0x1356	; 0x1356 <fputc>
     f48:	02 ff       	sbrs	r16, 2
     f4a:	17 c0       	rjmp	.+46     	; 0xf7a <vfprintf+0x636>
     f4c:	01 fd       	sbrc	r16, 1
     f4e:	03 c0       	rjmp	.+6      	; 0xf56 <vfprintf+0x612>
     f50:	88 e7       	ldi	r24, 0x78	; 120
     f52:	90 e0       	ldi	r25, 0x00	; 0
     f54:	02 c0       	rjmp	.+4      	; 0xf5a <vfprintf+0x616>
     f56:	88 e5       	ldi	r24, 0x58	; 88
     f58:	90 e0       	ldi	r25, 0x00	; 0
     f5a:	b7 01       	movw	r22, r14
     f5c:	0c c0       	rjmp	.+24     	; 0xf76 <vfprintf+0x632>
     f5e:	80 2f       	mov	r24, r16
     f60:	86 78       	andi	r24, 0x86	; 134
     f62:	59 f0       	breq	.+22     	; 0xf7a <vfprintf+0x636>
     f64:	01 ff       	sbrs	r16, 1
     f66:	02 c0       	rjmp	.+4      	; 0xf6c <vfprintf+0x628>
     f68:	8b e2       	ldi	r24, 0x2B	; 43
     f6a:	01 c0       	rjmp	.+2      	; 0xf6e <vfprintf+0x62a>
     f6c:	80 e2       	ldi	r24, 0x20	; 32
     f6e:	07 fd       	sbrc	r16, 7
     f70:	8d e2       	ldi	r24, 0x2D	; 45
     f72:	b7 01       	movw	r22, r14
     f74:	90 e0       	ldi	r25, 0x00	; 0
     f76:	0e 94 ab 09 	call	0x1356	; 0x1356 <fputc>
     f7a:	c1 16       	cp	r12, r17
     f7c:	38 f4       	brcc	.+14     	; 0xf8c <vfprintf+0x648>
     f7e:	b7 01       	movw	r22, r14
     f80:	80 e3       	ldi	r24, 0x30	; 48
     f82:	90 e0       	ldi	r25, 0x00	; 0
     f84:	0e 94 ab 09 	call	0x1356	; 0x1356 <fputc>
     f88:	11 50       	subi	r17, 0x01	; 1
     f8a:	f7 cf       	rjmp	.-18     	; 0xf7a <vfprintf+0x636>
     f8c:	ca 94       	dec	r12
     f8e:	f3 01       	movw	r30, r6
     f90:	ec 0d       	add	r30, r12
     f92:	f1 1d       	adc	r31, r1
     f94:	80 81       	ld	r24, Z
     f96:	b7 01       	movw	r22, r14
     f98:	90 e0       	ldi	r25, 0x00	; 0
     f9a:	0e 94 ab 09 	call	0x1356	; 0x1356 <fputc>
     f9e:	c1 10       	cpse	r12, r1
     fa0:	f5 cf       	rjmp	.-22     	; 0xf8c <vfprintf+0x648>
     fa2:	15 c0       	rjmp	.+42     	; 0xfce <vfprintf+0x68a>
     fa4:	f4 e0       	ldi	r31, 0x04	; 4
     fa6:	f5 15       	cp	r31, r5
     fa8:	60 f5       	brcc	.+88     	; 0x1002 <vfprintf+0x6be>
     faa:	84 e0       	ldi	r24, 0x04	; 4
     fac:	58 1a       	sub	r5, r24
     fae:	93 fe       	sbrs	r9, 3
     fb0:	1f c0       	rjmp	.+62     	; 0xff0 <vfprintf+0x6ac>
     fb2:	01 11       	cpse	r16, r1
     fb4:	27 c0       	rjmp	.+78     	; 0x1004 <vfprintf+0x6c0>
     fb6:	2c 85       	ldd	r18, Y+12	; 0x0c
     fb8:	23 ff       	sbrs	r18, 3
     fba:	2a c0       	rjmp	.+84     	; 0x1010 <vfprintf+0x6cc>
     fbc:	04 e5       	ldi	r16, 0x54	; 84
     fbe:	10 e0       	ldi	r17, 0x00	; 0
     fc0:	39 2d       	mov	r19, r9
     fc2:	30 71       	andi	r19, 0x10	; 16
     fc4:	93 2e       	mov	r9, r19
     fc6:	f8 01       	movw	r30, r16
     fc8:	84 91       	lpm	r24, Z
     fca:	81 11       	cpse	r24, r1
     fcc:	24 c0       	rjmp	.+72     	; 0x1016 <vfprintf+0x6d2>
     fce:	55 20       	and	r5, r5
     fd0:	09 f4       	brne	.+2      	; 0xfd4 <vfprintf+0x690>
     fd2:	e4 cc       	rjmp	.-1592   	; 0x99c <vfprintf+0x58>
     fd4:	b7 01       	movw	r22, r14
     fd6:	80 e2       	ldi	r24, 0x20	; 32
     fd8:	90 e0       	ldi	r25, 0x00	; 0
     fda:	0e 94 ab 09 	call	0x1356	; 0x1356 <fputc>
     fde:	5a 94       	dec	r5
     fe0:	f6 cf       	rjmp	.-20     	; 0xfce <vfprintf+0x68a>
     fe2:	f7 01       	movw	r30, r14
     fe4:	86 81       	ldd	r24, Z+6	; 0x06
     fe6:	97 81       	ldd	r25, Z+7	; 0x07
     fe8:	26 c0       	rjmp	.+76     	; 0x1036 <vfprintf+0x6f2>
     fea:	8f ef       	ldi	r24, 0xFF	; 255
     fec:	9f ef       	ldi	r25, 0xFF	; 255
     fee:	23 c0       	rjmp	.+70     	; 0x1036 <vfprintf+0x6f2>
     ff0:	b7 01       	movw	r22, r14
     ff2:	80 e2       	ldi	r24, 0x20	; 32
     ff4:	90 e0       	ldi	r25, 0x00	; 0
     ff6:	0e 94 ab 09 	call	0x1356	; 0x1356 <fputc>
     ffa:	5a 94       	dec	r5
     ffc:	51 10       	cpse	r5, r1
     ffe:	f8 cf       	rjmp	.-16     	; 0xff0 <vfprintf+0x6ac>
    1000:	d8 cf       	rjmp	.-80     	; 0xfb2 <vfprintf+0x66e>
    1002:	51 2c       	mov	r5, r1
    1004:	b7 01       	movw	r22, r14
    1006:	80 2f       	mov	r24, r16
    1008:	90 e0       	ldi	r25, 0x00	; 0
    100a:	0e 94 ab 09 	call	0x1356	; 0x1356 <fputc>
    100e:	d3 cf       	rjmp	.-90     	; 0xfb6 <vfprintf+0x672>
    1010:	08 e5       	ldi	r16, 0x58	; 88
    1012:	10 e0       	ldi	r17, 0x00	; 0
    1014:	d5 cf       	rjmp	.-86     	; 0xfc0 <vfprintf+0x67c>
    1016:	91 10       	cpse	r9, r1
    1018:	80 52       	subi	r24, 0x20	; 32
    101a:	b7 01       	movw	r22, r14
    101c:	90 e0       	ldi	r25, 0x00	; 0
    101e:	0e 94 ab 09 	call	0x1356	; 0x1356 <fputc>
    1022:	0f 5f       	subi	r16, 0xFF	; 255
    1024:	1f 4f       	sbci	r17, 0xFF	; 255
    1026:	cf cf       	rjmp	.-98     	; 0xfc6 <vfprintf+0x682>
    1028:	23 e0       	ldi	r18, 0x03	; 3
    102a:	25 15       	cp	r18, r5
    102c:	10 f4       	brcc	.+4      	; 0x1032 <vfprintf+0x6ee>
    102e:	83 e0       	ldi	r24, 0x03	; 3
    1030:	bd cf       	rjmp	.-134    	; 0xfac <vfprintf+0x668>
    1032:	51 2c       	mov	r5, r1
    1034:	c0 cf       	rjmp	.-128    	; 0xfb6 <vfprintf+0x672>
    1036:	60 96       	adiw	r28, 0x10	; 16
    1038:	e2 e1       	ldi	r30, 0x12	; 18
    103a:	0c 94 78 08 	jmp	0x10f0	; 0x10f0 <__epilogue_restores__>

0000103e <__mulsi3>:
    103e:	db 01       	movw	r26, r22
    1040:	8f 93       	push	r24
    1042:	9f 93       	push	r25
    1044:	0e 94 51 08 	call	0x10a2	; 0x10a2 <__muluhisi3>
    1048:	bf 91       	pop	r27
    104a:	af 91       	pop	r26
    104c:	a2 9f       	mul	r26, r18
    104e:	80 0d       	add	r24, r0
    1050:	91 1d       	adc	r25, r1
    1052:	a3 9f       	mul	r26, r19
    1054:	90 0d       	add	r25, r0
    1056:	b2 9f       	mul	r27, r18
    1058:	90 0d       	add	r25, r0
    105a:	11 24       	eor	r1, r1
    105c:	08 95       	ret

0000105e <__udivmodsi4>:
    105e:	a1 e2       	ldi	r26, 0x21	; 33
    1060:	1a 2e       	mov	r1, r26
    1062:	aa 1b       	sub	r26, r26
    1064:	bb 1b       	sub	r27, r27
    1066:	fd 01       	movw	r30, r26
    1068:	0d c0       	rjmp	.+26     	; 0x1084 <__udivmodsi4_ep>

0000106a <__udivmodsi4_loop>:
    106a:	aa 1f       	adc	r26, r26
    106c:	bb 1f       	adc	r27, r27
    106e:	ee 1f       	adc	r30, r30
    1070:	ff 1f       	adc	r31, r31
    1072:	a2 17       	cp	r26, r18
    1074:	b3 07       	cpc	r27, r19
    1076:	e4 07       	cpc	r30, r20
    1078:	f5 07       	cpc	r31, r21
    107a:	20 f0       	brcs	.+8      	; 0x1084 <__udivmodsi4_ep>
    107c:	a2 1b       	sub	r26, r18
    107e:	b3 0b       	sbc	r27, r19
    1080:	e4 0b       	sbc	r30, r20
    1082:	f5 0b       	sbc	r31, r21

00001084 <__udivmodsi4_ep>:
    1084:	66 1f       	adc	r22, r22
    1086:	77 1f       	adc	r23, r23
    1088:	88 1f       	adc	r24, r24
    108a:	99 1f       	adc	r25, r25
    108c:	1a 94       	dec	r1
    108e:	69 f7       	brne	.-38     	; 0x106a <__udivmodsi4_loop>
    1090:	60 95       	com	r22
    1092:	70 95       	com	r23
    1094:	80 95       	com	r24
    1096:	90 95       	com	r25
    1098:	9b 01       	movw	r18, r22
    109a:	ac 01       	movw	r20, r24
    109c:	bd 01       	movw	r22, r26
    109e:	cf 01       	movw	r24, r30
    10a0:	08 95       	ret

000010a2 <__muluhisi3>:
    10a2:	0e 94 93 08 	call	0x1126	; 0x1126 <__umulhisi3>
    10a6:	a5 9f       	mul	r26, r21
    10a8:	90 0d       	add	r25, r0
    10aa:	b4 9f       	mul	r27, r20
    10ac:	90 0d       	add	r25, r0
    10ae:	a4 9f       	mul	r26, r20
    10b0:	80 0d       	add	r24, r0
    10b2:	91 1d       	adc	r25, r1
    10b4:	11 24       	eor	r1, r1
    10b6:	08 95       	ret

000010b8 <__prologue_saves__>:
    10b8:	2f 92       	push	r2
    10ba:	3f 92       	push	r3
    10bc:	4f 92       	push	r4
    10be:	5f 92       	push	r5
    10c0:	6f 92       	push	r6
    10c2:	7f 92       	push	r7
    10c4:	8f 92       	push	r8
    10c6:	9f 92       	push	r9
    10c8:	af 92       	push	r10
    10ca:	bf 92       	push	r11
    10cc:	cf 92       	push	r12
    10ce:	df 92       	push	r13
    10d0:	ef 92       	push	r14
    10d2:	ff 92       	push	r15
    10d4:	0f 93       	push	r16
    10d6:	1f 93       	push	r17
    10d8:	cf 93       	push	r28
    10da:	df 93       	push	r29
    10dc:	cd b7       	in	r28, 0x3d	; 61
    10de:	de b7       	in	r29, 0x3e	; 62
    10e0:	ca 1b       	sub	r28, r26
    10e2:	db 0b       	sbc	r29, r27
    10e4:	0f b6       	in	r0, 0x3f	; 63
    10e6:	f8 94       	cli
    10e8:	de bf       	out	0x3e, r29	; 62
    10ea:	0f be       	out	0x3f, r0	; 63
    10ec:	cd bf       	out	0x3d, r28	; 61
    10ee:	09 94       	ijmp

000010f0 <__epilogue_restores__>:
    10f0:	2a 88       	ldd	r2, Y+18	; 0x12
    10f2:	39 88       	ldd	r3, Y+17	; 0x11
    10f4:	48 88       	ldd	r4, Y+16	; 0x10
    10f6:	5f 84       	ldd	r5, Y+15	; 0x0f
    10f8:	6e 84       	ldd	r6, Y+14	; 0x0e
    10fa:	7d 84       	ldd	r7, Y+13	; 0x0d
    10fc:	8c 84       	ldd	r8, Y+12	; 0x0c
    10fe:	9b 84       	ldd	r9, Y+11	; 0x0b
    1100:	aa 84       	ldd	r10, Y+10	; 0x0a
    1102:	b9 84       	ldd	r11, Y+9	; 0x09
    1104:	c8 84       	ldd	r12, Y+8	; 0x08
    1106:	df 80       	ldd	r13, Y+7	; 0x07
    1108:	ee 80       	ldd	r14, Y+6	; 0x06
    110a:	fd 80       	ldd	r15, Y+5	; 0x05
    110c:	0c 81       	ldd	r16, Y+4	; 0x04
    110e:	1b 81       	ldd	r17, Y+3	; 0x03
    1110:	aa 81       	ldd	r26, Y+2	; 0x02
    1112:	b9 81       	ldd	r27, Y+1	; 0x01
    1114:	ce 0f       	add	r28, r30
    1116:	d1 1d       	adc	r29, r1
    1118:	0f b6       	in	r0, 0x3f	; 63
    111a:	f8 94       	cli
    111c:	de bf       	out	0x3e, r29	; 62
    111e:	0f be       	out	0x3f, r0	; 63
    1120:	cd bf       	out	0x3d, r28	; 61
    1122:	ed 01       	movw	r28, r26
    1124:	08 95       	ret

00001126 <__umulhisi3>:
    1126:	a2 9f       	mul	r26, r18
    1128:	b0 01       	movw	r22, r0
    112a:	b3 9f       	mul	r27, r19
    112c:	c0 01       	movw	r24, r0
    112e:	a3 9f       	mul	r26, r19
    1130:	70 0d       	add	r23, r0
    1132:	81 1d       	adc	r24, r1
    1134:	11 24       	eor	r1, r1
    1136:	91 1d       	adc	r25, r1
    1138:	b2 9f       	mul	r27, r18
    113a:	70 0d       	add	r23, r0
    113c:	81 1d       	adc	r24, r1
    113e:	11 24       	eor	r1, r1
    1140:	91 1d       	adc	r25, r1
    1142:	08 95       	ret

00001144 <__ftoa_engine>:
    1144:	28 30       	cpi	r18, 0x08	; 8
    1146:	08 f0       	brcs	.+2      	; 0x114a <__ftoa_engine+0x6>
    1148:	27 e0       	ldi	r18, 0x07	; 7
    114a:	33 27       	eor	r19, r19
    114c:	da 01       	movw	r26, r20
    114e:	99 0f       	add	r25, r25
    1150:	31 1d       	adc	r19, r1
    1152:	87 fd       	sbrc	r24, 7
    1154:	91 60       	ori	r25, 0x01	; 1
    1156:	00 96       	adiw	r24, 0x00	; 0
    1158:	61 05       	cpc	r22, r1
    115a:	71 05       	cpc	r23, r1
    115c:	39 f4       	brne	.+14     	; 0x116c <__ftoa_engine+0x28>
    115e:	32 60       	ori	r19, 0x02	; 2
    1160:	2e 5f       	subi	r18, 0xFE	; 254
    1162:	3d 93       	st	X+, r19
    1164:	30 e3       	ldi	r19, 0x30	; 48
    1166:	2a 95       	dec	r18
    1168:	e1 f7       	brne	.-8      	; 0x1162 <__ftoa_engine+0x1e>
    116a:	08 95       	ret
    116c:	9f 3f       	cpi	r25, 0xFF	; 255
    116e:	30 f0       	brcs	.+12     	; 0x117c <__ftoa_engine+0x38>
    1170:	80 38       	cpi	r24, 0x80	; 128
    1172:	71 05       	cpc	r23, r1
    1174:	61 05       	cpc	r22, r1
    1176:	09 f0       	breq	.+2      	; 0x117a <__ftoa_engine+0x36>
    1178:	3c 5f       	subi	r19, 0xFC	; 252
    117a:	3c 5f       	subi	r19, 0xFC	; 252
    117c:	3d 93       	st	X+, r19
    117e:	91 30       	cpi	r25, 0x01	; 1
    1180:	08 f0       	brcs	.+2      	; 0x1184 <__ftoa_engine+0x40>
    1182:	80 68       	ori	r24, 0x80	; 128
    1184:	91 1d       	adc	r25, r1
    1186:	df 93       	push	r29
    1188:	cf 93       	push	r28
    118a:	1f 93       	push	r17
    118c:	0f 93       	push	r16
    118e:	ff 92       	push	r15
    1190:	ef 92       	push	r14
    1192:	19 2f       	mov	r17, r25
    1194:	98 7f       	andi	r25, 0xF8	; 248
    1196:	96 95       	lsr	r25
    1198:	e9 2f       	mov	r30, r25
    119a:	96 95       	lsr	r25
    119c:	96 95       	lsr	r25
    119e:	e9 0f       	add	r30, r25
    11a0:	ff 27       	eor	r31, r31
    11a2:	ea 54       	subi	r30, 0x4A	; 74
    11a4:	ff 4f       	sbci	r31, 0xFF	; 255
    11a6:	99 27       	eor	r25, r25
    11a8:	33 27       	eor	r19, r19
    11aa:	ee 24       	eor	r14, r14
    11ac:	ff 24       	eor	r15, r15
    11ae:	a7 01       	movw	r20, r14
    11b0:	e7 01       	movw	r28, r14
    11b2:	05 90       	lpm	r0, Z+
    11b4:	08 94       	sec
    11b6:	07 94       	ror	r0
    11b8:	28 f4       	brcc	.+10     	; 0x11c4 <__ftoa_engine+0x80>
    11ba:	36 0f       	add	r19, r22
    11bc:	e7 1e       	adc	r14, r23
    11be:	f8 1e       	adc	r15, r24
    11c0:	49 1f       	adc	r20, r25
    11c2:	51 1d       	adc	r21, r1
    11c4:	66 0f       	add	r22, r22
    11c6:	77 1f       	adc	r23, r23
    11c8:	88 1f       	adc	r24, r24
    11ca:	99 1f       	adc	r25, r25
    11cc:	06 94       	lsr	r0
    11ce:	a1 f7       	brne	.-24     	; 0x11b8 <__ftoa_engine+0x74>
    11d0:	05 90       	lpm	r0, Z+
    11d2:	07 94       	ror	r0
    11d4:	28 f4       	brcc	.+10     	; 0x11e0 <__ftoa_engine+0x9c>
    11d6:	e7 0e       	add	r14, r23
    11d8:	f8 1e       	adc	r15, r24
    11da:	49 1f       	adc	r20, r25
    11dc:	56 1f       	adc	r21, r22
    11de:	c1 1d       	adc	r28, r1
    11e0:	77 0f       	add	r23, r23
    11e2:	88 1f       	adc	r24, r24
    11e4:	99 1f       	adc	r25, r25
    11e6:	66 1f       	adc	r22, r22
    11e8:	06 94       	lsr	r0
    11ea:	a1 f7       	brne	.-24     	; 0x11d4 <__ftoa_engine+0x90>
    11ec:	05 90       	lpm	r0, Z+
    11ee:	07 94       	ror	r0
    11f0:	28 f4       	brcc	.+10     	; 0x11fc <__ftoa_engine+0xb8>
    11f2:	f8 0e       	add	r15, r24
    11f4:	49 1f       	adc	r20, r25
    11f6:	56 1f       	adc	r21, r22
    11f8:	c7 1f       	adc	r28, r23
    11fa:	d1 1d       	adc	r29, r1
    11fc:	88 0f       	add	r24, r24
    11fe:	99 1f       	adc	r25, r25
    1200:	66 1f       	adc	r22, r22
    1202:	77 1f       	adc	r23, r23
    1204:	06 94       	lsr	r0
    1206:	a1 f7       	brne	.-24     	; 0x11f0 <__ftoa_engine+0xac>
    1208:	05 90       	lpm	r0, Z+
    120a:	07 94       	ror	r0
    120c:	20 f4       	brcc	.+8      	; 0x1216 <__ftoa_engine+0xd2>
    120e:	49 0f       	add	r20, r25
    1210:	56 1f       	adc	r21, r22
    1212:	c7 1f       	adc	r28, r23
    1214:	d8 1f       	adc	r29, r24
    1216:	99 0f       	add	r25, r25
    1218:	66 1f       	adc	r22, r22
    121a:	77 1f       	adc	r23, r23
    121c:	88 1f       	adc	r24, r24
    121e:	06 94       	lsr	r0
    1220:	a9 f7       	brne	.-22     	; 0x120c <__ftoa_engine+0xc8>
    1222:	84 91       	lpm	r24, Z
    1224:	10 95       	com	r17
    1226:	17 70       	andi	r17, 0x07	; 7
    1228:	41 f0       	breq	.+16     	; 0x123a <__ftoa_engine+0xf6>
    122a:	d6 95       	lsr	r29
    122c:	c7 95       	ror	r28
    122e:	57 95       	ror	r21
    1230:	47 95       	ror	r20
    1232:	f7 94       	ror	r15
    1234:	e7 94       	ror	r14
    1236:	1a 95       	dec	r17
    1238:	c1 f7       	brne	.-16     	; 0x122a <__ftoa_engine+0xe6>
    123a:	ec e5       	ldi	r30, 0x5C	; 92
    123c:	f0 e0       	ldi	r31, 0x00	; 0
    123e:	68 94       	set
    1240:	15 90       	lpm	r1, Z+
    1242:	15 91       	lpm	r17, Z+
    1244:	35 91       	lpm	r19, Z+
    1246:	65 91       	lpm	r22, Z+
    1248:	95 91       	lpm	r25, Z+
    124a:	05 90       	lpm	r0, Z+
    124c:	7f e2       	ldi	r23, 0x2F	; 47
    124e:	73 95       	inc	r23
    1250:	e1 18       	sub	r14, r1
    1252:	f1 0a       	sbc	r15, r17
    1254:	43 0b       	sbc	r20, r19
    1256:	56 0b       	sbc	r21, r22
    1258:	c9 0b       	sbc	r28, r25
    125a:	d0 09       	sbc	r29, r0
    125c:	c0 f7       	brcc	.-16     	; 0x124e <__ftoa_engine+0x10a>
    125e:	e1 0c       	add	r14, r1
    1260:	f1 1e       	adc	r15, r17
    1262:	43 1f       	adc	r20, r19
    1264:	56 1f       	adc	r21, r22
    1266:	c9 1f       	adc	r28, r25
    1268:	d0 1d       	adc	r29, r0
    126a:	7e f4       	brtc	.+30     	; 0x128a <__ftoa_engine+0x146>
    126c:	70 33       	cpi	r23, 0x30	; 48
    126e:	11 f4       	brne	.+4      	; 0x1274 <__ftoa_engine+0x130>
    1270:	8a 95       	dec	r24
    1272:	e6 cf       	rjmp	.-52     	; 0x1240 <__ftoa_engine+0xfc>
    1274:	e8 94       	clt
    1276:	01 50       	subi	r16, 0x01	; 1
    1278:	30 f0       	brcs	.+12     	; 0x1286 <__ftoa_engine+0x142>
    127a:	08 0f       	add	r16, r24
    127c:	0a f4       	brpl	.+2      	; 0x1280 <__ftoa_engine+0x13c>
    127e:	00 27       	eor	r16, r16
    1280:	02 17       	cp	r16, r18
    1282:	08 f4       	brcc	.+2      	; 0x1286 <__ftoa_engine+0x142>
    1284:	20 2f       	mov	r18, r16
    1286:	23 95       	inc	r18
    1288:	02 2f       	mov	r16, r18
    128a:	7a 33       	cpi	r23, 0x3A	; 58
    128c:	28 f0       	brcs	.+10     	; 0x1298 <__ftoa_engine+0x154>
    128e:	79 e3       	ldi	r23, 0x39	; 57
    1290:	7d 93       	st	X+, r23
    1292:	2a 95       	dec	r18
    1294:	e9 f7       	brne	.-6      	; 0x1290 <__ftoa_engine+0x14c>
    1296:	10 c0       	rjmp	.+32     	; 0x12b8 <__ftoa_engine+0x174>
    1298:	7d 93       	st	X+, r23
    129a:	2a 95       	dec	r18
    129c:	89 f6       	brne	.-94     	; 0x1240 <__ftoa_engine+0xfc>
    129e:	06 94       	lsr	r0
    12a0:	97 95       	ror	r25
    12a2:	67 95       	ror	r22
    12a4:	37 95       	ror	r19
    12a6:	17 95       	ror	r17
    12a8:	17 94       	ror	r1
    12aa:	e1 18       	sub	r14, r1
    12ac:	f1 0a       	sbc	r15, r17
    12ae:	43 0b       	sbc	r20, r19
    12b0:	56 0b       	sbc	r21, r22
    12b2:	c9 0b       	sbc	r28, r25
    12b4:	d0 09       	sbc	r29, r0
    12b6:	98 f0       	brcs	.+38     	; 0x12de <__ftoa_engine+0x19a>
    12b8:	23 95       	inc	r18
    12ba:	7e 91       	ld	r23, -X
    12bc:	73 95       	inc	r23
    12be:	7a 33       	cpi	r23, 0x3A	; 58
    12c0:	08 f0       	brcs	.+2      	; 0x12c4 <__ftoa_engine+0x180>
    12c2:	70 e3       	ldi	r23, 0x30	; 48
    12c4:	7c 93       	st	X, r23
    12c6:	20 13       	cpse	r18, r16
    12c8:	b8 f7       	brcc	.-18     	; 0x12b8 <__ftoa_engine+0x174>
    12ca:	7e 91       	ld	r23, -X
    12cc:	70 61       	ori	r23, 0x10	; 16
    12ce:	7d 93       	st	X+, r23
    12d0:	30 f0       	brcs	.+12     	; 0x12de <__ftoa_engine+0x19a>
    12d2:	83 95       	inc	r24
    12d4:	71 e3       	ldi	r23, 0x31	; 49
    12d6:	7d 93       	st	X+, r23
    12d8:	70 e3       	ldi	r23, 0x30	; 48
    12da:	2a 95       	dec	r18
    12dc:	e1 f7       	brne	.-8      	; 0x12d6 <__ftoa_engine+0x192>
    12de:	11 24       	eor	r1, r1
    12e0:	ef 90       	pop	r14
    12e2:	ff 90       	pop	r15
    12e4:	0f 91       	pop	r16
    12e6:	1f 91       	pop	r17
    12e8:	cf 91       	pop	r28
    12ea:	df 91       	pop	r29
    12ec:	99 27       	eor	r25, r25
    12ee:	87 fd       	sbrc	r24, 7
    12f0:	90 95       	com	r25
    12f2:	08 95       	ret

000012f4 <strnlen_P>:
    12f4:	fc 01       	movw	r30, r24
    12f6:	05 90       	lpm	r0, Z+
    12f8:	61 50       	subi	r22, 0x01	; 1
    12fa:	70 40       	sbci	r23, 0x00	; 0
    12fc:	01 10       	cpse	r0, r1
    12fe:	d8 f7       	brcc	.-10     	; 0x12f6 <strnlen_P+0x2>
    1300:	80 95       	com	r24
    1302:	90 95       	com	r25
    1304:	8e 0f       	add	r24, r30
    1306:	9f 1f       	adc	r25, r31
    1308:	08 95       	ret

0000130a <strnlen>:
    130a:	fc 01       	movw	r30, r24
    130c:	61 50       	subi	r22, 0x01	; 1
    130e:	70 40       	sbci	r23, 0x00	; 0
    1310:	01 90       	ld	r0, Z+
    1312:	01 10       	cpse	r0, r1
    1314:	d8 f7       	brcc	.-10     	; 0x130c <strnlen+0x2>
    1316:	80 95       	com	r24
    1318:	90 95       	com	r25
    131a:	8e 0f       	add	r24, r30
    131c:	9f 1f       	adc	r25, r31
    131e:	08 95       	ret

00001320 <fprintf_P>:
    1320:	a0 e0       	ldi	r26, 0x00	; 0
    1322:	b0 e0       	ldi	r27, 0x00	; 0
    1324:	e6 e9       	ldi	r30, 0x96	; 150
    1326:	f9 e0       	ldi	r31, 0x09	; 9
    1328:	0c 94 6a 08 	jmp	0x10d4	; 0x10d4 <__prologue_saves__+0x1c>
    132c:	0f 81       	ldd	r16, Y+7	; 0x07
    132e:	18 85       	ldd	r17, Y+8	; 0x08
    1330:	f8 01       	movw	r30, r16
    1332:	83 81       	ldd	r24, Z+3	; 0x03
    1334:	88 60       	ori	r24, 0x08	; 8
    1336:	83 83       	std	Z+3, r24	; 0x03
    1338:	ae 01       	movw	r20, r28
    133a:	45 5f       	subi	r20, 0xF5	; 245
    133c:	5f 4f       	sbci	r21, 0xFF	; 255
    133e:	69 85       	ldd	r22, Y+9	; 0x09
    1340:	7a 85       	ldd	r23, Y+10	; 0x0a
    1342:	c8 01       	movw	r24, r16
    1344:	0e 94 a2 04 	call	0x944	; 0x944 <vfprintf>
    1348:	f8 01       	movw	r30, r16
    134a:	23 81       	ldd	r18, Z+3	; 0x03
    134c:	27 7f       	andi	r18, 0xF7	; 247
    134e:	23 83       	std	Z+3, r18	; 0x03
    1350:	e4 e0       	ldi	r30, 0x04	; 4
    1352:	0c 94 86 08 	jmp	0x110c	; 0x110c <__epilogue_restores__+0x1c>

00001356 <fputc>:
    1356:	0f 93       	push	r16
    1358:	1f 93       	push	r17
    135a:	cf 93       	push	r28
    135c:	df 93       	push	r29
    135e:	fb 01       	movw	r30, r22
    1360:	23 81       	ldd	r18, Z+3	; 0x03
    1362:	21 fd       	sbrc	r18, 1
    1364:	03 c0       	rjmp	.+6      	; 0x136c <fputc+0x16>
    1366:	8f ef       	ldi	r24, 0xFF	; 255
    1368:	9f ef       	ldi	r25, 0xFF	; 255
    136a:	2c c0       	rjmp	.+88     	; 0x13c4 <fputc+0x6e>
    136c:	22 ff       	sbrs	r18, 2
    136e:	16 c0       	rjmp	.+44     	; 0x139c <fputc+0x46>
    1370:	46 81       	ldd	r20, Z+6	; 0x06
    1372:	57 81       	ldd	r21, Z+7	; 0x07
    1374:	24 81       	ldd	r18, Z+4	; 0x04
    1376:	35 81       	ldd	r19, Z+5	; 0x05
    1378:	42 17       	cp	r20, r18
    137a:	53 07       	cpc	r21, r19
    137c:	44 f4       	brge	.+16     	; 0x138e <fputc+0x38>
    137e:	a0 81       	ld	r26, Z
    1380:	b1 81       	ldd	r27, Z+1	; 0x01
    1382:	9d 01       	movw	r18, r26
    1384:	2f 5f       	subi	r18, 0xFF	; 255
    1386:	3f 4f       	sbci	r19, 0xFF	; 255
    1388:	31 83       	std	Z+1, r19	; 0x01
    138a:	20 83       	st	Z, r18
    138c:	8c 93       	st	X, r24
    138e:	26 81       	ldd	r18, Z+6	; 0x06
    1390:	37 81       	ldd	r19, Z+7	; 0x07
    1392:	2f 5f       	subi	r18, 0xFF	; 255
    1394:	3f 4f       	sbci	r19, 0xFF	; 255
    1396:	37 83       	std	Z+7, r19	; 0x07
    1398:	26 83       	std	Z+6, r18	; 0x06
    139a:	14 c0       	rjmp	.+40     	; 0x13c4 <fputc+0x6e>
    139c:	8b 01       	movw	r16, r22
    139e:	ec 01       	movw	r28, r24
    13a0:	fb 01       	movw	r30, r22
    13a2:	00 84       	ldd	r0, Z+8	; 0x08
    13a4:	f1 85       	ldd	r31, Z+9	; 0x09
    13a6:	e0 2d       	mov	r30, r0
    13a8:	09 95       	icall
    13aa:	89 2b       	or	r24, r25
    13ac:	e1 f6       	brne	.-72     	; 0x1366 <fputc+0x10>
    13ae:	d8 01       	movw	r26, r16
    13b0:	16 96       	adiw	r26, 0x06	; 6
    13b2:	8d 91       	ld	r24, X+
    13b4:	9c 91       	ld	r25, X
    13b6:	17 97       	sbiw	r26, 0x07	; 7
    13b8:	01 96       	adiw	r24, 0x01	; 1
    13ba:	17 96       	adiw	r26, 0x07	; 7
    13bc:	9c 93       	st	X, r25
    13be:	8e 93       	st	-X, r24
    13c0:	16 97       	sbiw	r26, 0x06	; 6
    13c2:	ce 01       	movw	r24, r28
    13c4:	df 91       	pop	r29
    13c6:	cf 91       	pop	r28
    13c8:	1f 91       	pop	r17
    13ca:	0f 91       	pop	r16
    13cc:	08 95       	ret

000013ce <__ultoa_invert>:
    13ce:	fa 01       	movw	r30, r20
    13d0:	aa 27       	eor	r26, r26
    13d2:	28 30       	cpi	r18, 0x08	; 8
    13d4:	51 f1       	breq	.+84     	; 0x142a <__ultoa_invert+0x5c>
    13d6:	20 31       	cpi	r18, 0x10	; 16
    13d8:	81 f1       	breq	.+96     	; 0x143a <__ultoa_invert+0x6c>
    13da:	e8 94       	clt
    13dc:	6f 93       	push	r22
    13de:	6e 7f       	andi	r22, 0xFE	; 254
    13e0:	6e 5f       	subi	r22, 0xFE	; 254
    13e2:	7f 4f       	sbci	r23, 0xFF	; 255
    13e4:	8f 4f       	sbci	r24, 0xFF	; 255
    13e6:	9f 4f       	sbci	r25, 0xFF	; 255
    13e8:	af 4f       	sbci	r26, 0xFF	; 255
    13ea:	b1 e0       	ldi	r27, 0x01	; 1
    13ec:	3e d0       	rcall	.+124    	; 0x146a <__ultoa_invert+0x9c>
    13ee:	b4 e0       	ldi	r27, 0x04	; 4
    13f0:	3c d0       	rcall	.+120    	; 0x146a <__ultoa_invert+0x9c>
    13f2:	67 0f       	add	r22, r23
    13f4:	78 1f       	adc	r23, r24
    13f6:	89 1f       	adc	r24, r25
    13f8:	9a 1f       	adc	r25, r26
    13fa:	a1 1d       	adc	r26, r1
    13fc:	68 0f       	add	r22, r24
    13fe:	79 1f       	adc	r23, r25
    1400:	8a 1f       	adc	r24, r26
    1402:	91 1d       	adc	r25, r1
    1404:	a1 1d       	adc	r26, r1
    1406:	6a 0f       	add	r22, r26
    1408:	71 1d       	adc	r23, r1
    140a:	81 1d       	adc	r24, r1
    140c:	91 1d       	adc	r25, r1
    140e:	a1 1d       	adc	r26, r1
    1410:	20 d0       	rcall	.+64     	; 0x1452 <__ultoa_invert+0x84>
    1412:	09 f4       	brne	.+2      	; 0x1416 <__ultoa_invert+0x48>
    1414:	68 94       	set
    1416:	3f 91       	pop	r19
    1418:	2a e0       	ldi	r18, 0x0A	; 10
    141a:	26 9f       	mul	r18, r22
    141c:	11 24       	eor	r1, r1
    141e:	30 19       	sub	r19, r0
    1420:	30 5d       	subi	r19, 0xD0	; 208
    1422:	31 93       	st	Z+, r19
    1424:	de f6       	brtc	.-74     	; 0x13dc <__ultoa_invert+0xe>
    1426:	cf 01       	movw	r24, r30
    1428:	08 95       	ret
    142a:	46 2f       	mov	r20, r22
    142c:	47 70       	andi	r20, 0x07	; 7
    142e:	40 5d       	subi	r20, 0xD0	; 208
    1430:	41 93       	st	Z+, r20
    1432:	b3 e0       	ldi	r27, 0x03	; 3
    1434:	0f d0       	rcall	.+30     	; 0x1454 <__ultoa_invert+0x86>
    1436:	c9 f7       	brne	.-14     	; 0x142a <__ultoa_invert+0x5c>
    1438:	f6 cf       	rjmp	.-20     	; 0x1426 <__ultoa_invert+0x58>
    143a:	46 2f       	mov	r20, r22
    143c:	4f 70       	andi	r20, 0x0F	; 15
    143e:	40 5d       	subi	r20, 0xD0	; 208
    1440:	4a 33       	cpi	r20, 0x3A	; 58
    1442:	18 f0       	brcs	.+6      	; 0x144a <__ultoa_invert+0x7c>
    1444:	49 5d       	subi	r20, 0xD9	; 217
    1446:	31 fd       	sbrc	r19, 1
    1448:	40 52       	subi	r20, 0x20	; 32
    144a:	41 93       	st	Z+, r20
    144c:	02 d0       	rcall	.+4      	; 0x1452 <__ultoa_invert+0x84>
    144e:	a9 f7       	brne	.-22     	; 0x143a <__ultoa_invert+0x6c>
    1450:	ea cf       	rjmp	.-44     	; 0x1426 <__ultoa_invert+0x58>
    1452:	b4 e0       	ldi	r27, 0x04	; 4
    1454:	a6 95       	lsr	r26
    1456:	97 95       	ror	r25
    1458:	87 95       	ror	r24
    145a:	77 95       	ror	r23
    145c:	67 95       	ror	r22
    145e:	ba 95       	dec	r27
    1460:	c9 f7       	brne	.-14     	; 0x1454 <__ultoa_invert+0x86>
    1462:	00 97       	sbiw	r24, 0x00	; 0
    1464:	61 05       	cpc	r22, r1
    1466:	71 05       	cpc	r23, r1
    1468:	08 95       	ret
    146a:	9b 01       	movw	r18, r22
    146c:	ac 01       	movw	r20, r24
    146e:	0a 2e       	mov	r0, r26
    1470:	06 94       	lsr	r0
    1472:	57 95       	ror	r21
    1474:	47 95       	ror	r20
    1476:	37 95       	ror	r19
    1478:	27 95       	ror	r18
    147a:	ba 95       	dec	r27
    147c:	c9 f7       	brne	.-14     	; 0x1470 <__ultoa_invert+0xa2>
    147e:	62 0f       	add	r22, r18
    1480:	73 1f       	adc	r23, r19
    1482:	84 1f       	adc	r24, r20
    1484:	95 1f       	adc	r25, r21
    1486:	a0 1d       	adc	r26, r0
    1488:	08 95       	ret

0000148a <_exit>:
    148a:	f8 94       	cli

0000148c <__stop_program>:
    148c:	ff cf       	rjmp	.-2      	; 0x148c <__stop_program>
